ccopy_reg
_reconstructor
p0
(ctextblob.classifiers
NaiveBayesClassifier
p1
c__builtin__
object
p2
Ntp3
Rp4
(dp5
S'format_kwargs'
p6
(dp7
sS'train_features'
p8
(lp9
((dp10
Vcontains(u)
p11
I00
sVcontains(O)
p12
I00
sVcontains(M)
p13
I00
sVcontains(S)
p14
I00
sVcontains(Q)
p15
I00
sVcontains(d)
p16
I00
sVcontains(W)
p17
I00
sVcontains(C)
p18
I00
sVcontains(A)
p19
I01
sVcontains(o)
p20
I00
sVcontains(T)
p21
I00
sVcontains(Z)
p22
I00
sVcontains(G)
p23
I00
sVcontains(E)
p24
I00
sVcontains(s)
p25
I00
sVcontains(K)
p26
I00
sVcontains(I)
p27
I00
sVcontains(c)
p28
I00
sVcontains(H)
p29
I00
sVcontains(N)
p30
I00
sVcontains(g)
p31
I00
sVcontains(L)
p32
I00
sVcontains(e)
p33
I00
sVcontains(R)
p34
I00
sVcontains(P)
p35
I00
sVcontains(V)
p36
I00
sVcontains(U)
p37
I01
sVcontains(B)
p38
I00
sVcontains(h)
p39
I00
sVcontains(Y)
p40
I00
sVcontains(F)
p41
I00
sVcontains(D)
p42
I00
sVcontains(J)
p43
I00
sS'medical_title'
p44
tp45
a((dp46
Vcontains(u)
p47
I00
sVcontains(O)
p48
I00
sVcontains(M)
p49
I00
sVcontains(S)
p50
I00
sVcontains(Q)
p51
I00
sVcontains(d)
p52
I00
sVcontains(W)
p53
I00
sVcontains(C)
p54
I00
sVcontains(A)
p55
I01
sVcontains(o)
p56
I00
sVcontains(T)
p57
I00
sVcontains(Z)
p58
I00
sVcontains(G)
p59
I00
sVcontains(E)
p60
I00
sVcontains(s)
p61
I00
sVcontains(K)
p62
I00
sVcontains(I)
p63
I00
sVcontains(c)
p64
I00
sVcontains(H)
p65
I00
sVcontains(N)
p66
I01
sVcontains(g)
p67
I00
sVcontains(L)
p68
I00
sVcontains(e)
p69
I00
sVcontains(R)
p70
I00
sVcontains(P)
p71
I00
sVcontains(V)
p72
I00
sVcontains(U)
p73
I00
sVcontains(B)
p74
I00
sVcontains(h)
p75
I00
sVcontains(Y)
p76
I00
sVcontains(F)
p77
I00
sVcontains(D)
p78
I00
sVcontains(J)
p79
I00
sg44
tp80
a((dp81
Vcontains(u)
p82
I00
sVcontains(O)
p83
I00
sVcontains(M)
p84
I00
sVcontains(S)
p85
I00
sVcontains(Q)
p86
I00
sVcontains(d)
p87
I00
sVcontains(W)
p88
I00
sVcontains(C)
p89
I01
sVcontains(A)
p90
I01
sVcontains(o)
p91
I00
sVcontains(T)
p92
I00
sVcontains(Z)
p93
I00
sVcontains(G)
p94
I00
sVcontains(E)
p95
I00
sVcontains(s)
p96
I00
sVcontains(K)
p97
I00
sVcontains(I)
p98
I00
sVcontains(c)
p99
I00
sVcontains(H)
p100
I00
sVcontains(N)
p101
I00
sVcontains(g)
p102
I00
sVcontains(L)
p103
I00
sVcontains(e)
p104
I00
sVcontains(R)
p105
I01
sVcontains(P)
p106
I00
sVcontains(V)
p107
I00
sVcontains(U)
p108
I00
sVcontains(B)
p109
I00
sVcontains(h)
p110
I00
sVcontains(Y)
p111
I00
sVcontains(F)
p112
I01
sVcontains(D)
p113
I00
sVcontains(J)
p114
I00
sg44
tp115
a((dp116
Vcontains(u)
p117
I00
sVcontains(O)
p118
I00
sVcontains(M)
p119
I00
sVcontains(S)
p120
I01
sVcontains(Q)
p121
I00
sVcontains(d)
p122
I00
sVcontains(W)
p123
I00
sVcontains(C)
p124
I00
sVcontains(A)
p125
I01
sVcontains(o)
p126
I00
sVcontains(T)
p127
I00
sVcontains(Z)
p128
I00
sVcontains(G)
p129
I00
sVcontains(E)
p130
I00
sVcontains(s)
p131
I00
sVcontains(K)
p132
I00
sVcontains(I)
p133
I00
sVcontains(c)
p134
I00
sVcontains(H)
p135
I00
sVcontains(N)
p136
I00
sVcontains(g)
p137
I00
sVcontains(L)
p138
I00
sVcontains(e)
p139
I00
sVcontains(R)
p140
I00
sVcontains(P)
p141
I00
sVcontains(V)
p142
I00
sVcontains(U)
p143
I00
sVcontains(B)
p144
I00
sVcontains(h)
p145
I00
sVcontains(Y)
p146
I00
sVcontains(F)
p147
I00
sVcontains(D)
p148
I00
sVcontains(J)
p149
I00
sg44
tp150
a((dp151
Vcontains(u)
p152
I00
sVcontains(O)
p153
I00
sVcontains(M)
p154
I00
sVcontains(S)
p155
I01
sVcontains(Q)
p156
I00
sVcontains(d)
p157
I00
sVcontains(W)
p158
I00
sVcontains(C)
p159
I01
sVcontains(A)
p160
I01
sVcontains(o)
p161
I00
sVcontains(T)
p162
I00
sVcontains(Z)
p163
I00
sVcontains(G)
p164
I00
sVcontains(E)
p165
I00
sVcontains(s)
p166
I00
sVcontains(K)
p167
I00
sVcontains(I)
p168
I00
sVcontains(c)
p169
I00
sVcontains(H)
p170
I00
sVcontains(N)
p171
I00
sVcontains(g)
p172
I00
sVcontains(L)
p173
I01
sVcontains(e)
p174
I00
sVcontains(R)
p175
I00
sVcontains(P)
p176
I00
sVcontains(V)
p177
I00
sVcontains(U)
p178
I00
sVcontains(B)
p179
I00
sVcontains(h)
p180
I00
sVcontains(Y)
p181
I00
sVcontains(F)
p182
I00
sVcontains(D)
p183
I00
sVcontains(J)
p184
I00
sg44
tp185
a((dp186
Vcontains(u)
p187
I00
sVcontains(O)
p188
I00
sVcontains(M)
p189
I00
sVcontains(S)
p190
I00
sVcontains(Q)
p191
I00
sVcontains(d)
p192
I00
sVcontains(W)
p193
I00
sVcontains(C)
p194
I01
sVcontains(A)
p195
I01
sVcontains(o)
p196
I00
sVcontains(T)
p197
I00
sVcontains(Z)
p198
I00
sVcontains(G)
p199
I00
sVcontains(E)
p200
I00
sVcontains(s)
p201
I00
sVcontains(K)
p202
I00
sVcontains(I)
p203
I00
sVcontains(c)
p204
I00
sVcontains(H)
p205
I00
sVcontains(N)
p206
I01
sVcontains(g)
p207
I00
sVcontains(L)
p208
I00
sVcontains(e)
p209
I00
sVcontains(R)
p210
I00
sVcontains(P)
p211
I01
sVcontains(V)
p212
I00
sVcontains(U)
p213
I00
sVcontains(B)
p214
I01
sVcontains(h)
p215
I00
sVcontains(Y)
p216
I00
sVcontains(F)
p217
I00
sVcontains(D)
p218
I00
sVcontains(J)
p219
I00
sg44
tp220
a((dp221
Vcontains(u)
p222
I00
sVcontains(O)
p223
I00
sVcontains(M)
p224
I00
sVcontains(S)
p225
I00
sVcontains(Q)
p226
I00
sVcontains(d)
p227
I00
sVcontains(W)
p228
I00
sVcontains(C)
p229
I00
sVcontains(A)
p230
I01
sVcontains(o)
p231
I00
sVcontains(T)
p232
I00
sVcontains(Z)
p233
I00
sVcontains(G)
p234
I00
sVcontains(E)
p235
I00
sVcontains(s)
p236
I00
sVcontains(K)
p237
I00
sVcontains(I)
p238
I00
sVcontains(c)
p239
I00
sVcontains(H)
p240
I00
sVcontains(N)
p241
I01
sVcontains(g)
p242
I00
sVcontains(L)
p243
I00
sVcontains(e)
p244
I00
sVcontains(R)
p245
I00
sVcontains(P)
p246
I00
sVcontains(V)
p247
I00
sVcontains(U)
p248
I00
sVcontains(B)
p249
I00
sVcontains(h)
p250
I00
sVcontains(Y)
p251
I00
sVcontains(F)
p252
I00
sVcontains(D)
p253
I01
sVcontains(J)
p254
I00
sg44
tp255
a((dp256
Vcontains(u)
p257
I00
sVcontains(O)
p258
I00
sVcontains(M)
p259
I00
sVcontains(S)
p260
I00
sVcontains(Q)
p261
I00
sVcontains(d)
p262
I00
sVcontains(W)
p263
I00
sVcontains(C)
p264
I01
sVcontains(A)
p265
I01
sVcontains(o)
p266
I00
sVcontains(T)
p267
I00
sVcontains(Z)
p268
I00
sVcontains(G)
p269
I00
sVcontains(E)
p270
I01
sVcontains(s)
p271
I00
sVcontains(K)
p272
I00
sVcontains(I)
p273
I00
sVcontains(c)
p274
I00
sVcontains(H)
p275
I00
sVcontains(N)
p276
I00
sVcontains(g)
p277
I00
sVcontains(L)
p278
I00
sVcontains(e)
p279
I00
sVcontains(R)
p280
I00
sVcontains(P)
p281
I00
sVcontains(V)
p282
I00
sVcontains(U)
p283
I00
sVcontains(B)
p284
I00
sVcontains(h)
p285
I00
sVcontains(Y)
p286
I00
sVcontains(F)
p287
I00
sVcontains(D)
p288
I00
sVcontains(J)
p289
I00
sg44
tp290
a((dp291
Vcontains(u)
p292
I00
sVcontains(O)
p293
I00
sVcontains(M)
p294
I00
sVcontains(S)
p295
I00
sVcontains(Q)
p296
I00
sVcontains(d)
p297
I00
sVcontains(W)
p298
I00
sVcontains(C)
p299
I01
sVcontains(A)
p300
I01
sVcontains(o)
p301
I00
sVcontains(T)
p302
I00
sVcontains(Z)
p303
I00
sVcontains(G)
p304
I00
sVcontains(E)
p305
I00
sVcontains(s)
p306
I00
sVcontains(K)
p307
I00
sVcontains(I)
p308
I00
sVcontains(c)
p309
I00
sVcontains(H)
p310
I00
sVcontains(N)
p311
I01
sVcontains(g)
p312
I00
sVcontains(L)
p313
I01
sVcontains(e)
p314
I00
sVcontains(R)
p315
I00
sVcontains(P)
p316
I00
sVcontains(V)
p317
I00
sVcontains(U)
p318
I00
sVcontains(B)
p319
I00
sVcontains(h)
p320
I00
sVcontains(Y)
p321
I00
sVcontains(F)
p322
I00
sVcontains(D)
p323
I00
sVcontains(J)
p324
I00
sg44
tp325
a((dp326
Vcontains(u)
p327
I00
sVcontains(O)
p328
I00
sVcontains(M)
p329
I00
sVcontains(S)
p330
I00
sVcontains(Q)
p331
I00
sVcontains(d)
p332
I00
sVcontains(W)
p333
I00
sVcontains(C)
p334
I00
sVcontains(A)
p335
I01
sVcontains(o)
p336
I00
sVcontains(T)
p337
I00
sVcontains(Z)
p338
I00
sVcontains(G)
p339
I00
sVcontains(E)
p340
I00
sVcontains(s)
p341
I00
sVcontains(K)
p342
I00
sVcontains(I)
p343
I00
sVcontains(c)
p344
I00
sVcontains(H)
p345
I00
sVcontains(N)
p346
I01
sVcontains(g)
p347
I00
sVcontains(L)
p348
I00
sVcontains(e)
p349
I00
sVcontains(R)
p350
I00
sVcontains(P)
p351
I01
sVcontains(V)
p352
I00
sVcontains(U)
p353
I00
sVcontains(B)
p354
I00
sVcontains(h)
p355
I00
sVcontains(Y)
p356
I00
sVcontains(F)
p357
I00
sVcontains(D)
p358
I00
sVcontains(J)
p359
I00
sg44
tp360
a((dp361
Vcontains(u)
p362
I00
sVcontains(O)
p363
I00
sVcontains(M)
p364
I00
sVcontains(S)
p365
I00
sVcontains(Q)
p366
I00
sVcontains(d)
p367
I00
sVcontains(W)
p368
I00
sVcontains(C)
p369
I01
sVcontains(A)
p370
I01
sVcontains(o)
p371
I00
sVcontains(T)
p372
I00
sVcontains(Z)
p373
I00
sVcontains(G)
p374
I00
sVcontains(E)
p375
I00
sVcontains(s)
p376
I00
sVcontains(K)
p377
I00
sVcontains(I)
p378
I00
sVcontains(c)
p379
I00
sVcontains(H)
p380
I00
sVcontains(N)
p381
I01
sVcontains(g)
p382
I00
sVcontains(L)
p383
I00
sVcontains(e)
p384
I00
sVcontains(R)
p385
I00
sVcontains(P)
p386
I01
sVcontains(V)
p387
I00
sVcontains(U)
p388
I00
sVcontains(B)
p389
I01
sVcontains(h)
p390
I00
sVcontains(Y)
p391
I00
sVcontains(F)
p392
I00
sVcontains(D)
p393
I00
sVcontains(J)
p394
I00
sg44
tp395
a((dp396
Vcontains(u)
p397
I00
sVcontains(O)
p398
I01
sVcontains(M)
p399
I00
sVcontains(S)
p400
I00
sVcontains(Q)
p401
I00
sVcontains(d)
p402
I00
sVcontains(W)
p403
I00
sVcontains(C)
p404
I01
sVcontains(A)
p405
I01
sVcontains(o)
p406
I00
sVcontains(T)
p407
I00
sVcontains(Z)
p408
I00
sVcontains(G)
p409
I00
sVcontains(E)
p410
I00
sVcontains(s)
p411
I00
sVcontains(K)
p412
I00
sVcontains(I)
p413
I00
sVcontains(c)
p414
I00
sVcontains(H)
p415
I00
sVcontains(N)
p416
I01
sVcontains(g)
p417
I00
sVcontains(L)
p418
I00
sVcontains(e)
p419
I00
sVcontains(R)
p420
I00
sVcontains(P)
p421
I00
sVcontains(V)
p422
I00
sVcontains(U)
p423
I00
sVcontains(B)
p424
I00
sVcontains(h)
p425
I00
sVcontains(Y)
p426
I00
sVcontains(F)
p427
I00
sVcontains(D)
p428
I00
sVcontains(J)
p429
I00
sg44
tp430
a((dp431
Vcontains(u)
p432
I00
sVcontains(O)
p433
I01
sVcontains(M)
p434
I00
sVcontains(S)
p435
I00
sVcontains(Q)
p436
I00
sVcontains(d)
p437
I00
sVcontains(W)
p438
I00
sVcontains(C)
p439
I01
sVcontains(A)
p440
I01
sVcontains(o)
p441
I00
sVcontains(T)
p442
I00
sVcontains(Z)
p443
I00
sVcontains(G)
p444
I00
sVcontains(E)
p445
I00
sVcontains(s)
p446
I00
sVcontains(K)
p447
I00
sVcontains(I)
p448
I00
sVcontains(c)
p449
I00
sVcontains(H)
p450
I00
sVcontains(N)
p451
I01
sVcontains(g)
p452
I00
sVcontains(L)
p453
I00
sVcontains(e)
p454
I00
sVcontains(R)
p455
I00
sVcontains(P)
p456
I01
sVcontains(V)
p457
I00
sVcontains(U)
p458
I00
sVcontains(B)
p459
I00
sVcontains(h)
p460
I00
sVcontains(Y)
p461
I00
sVcontains(F)
p462
I00
sVcontains(D)
p463
I00
sVcontains(J)
p464
I00
sg44
tp465
a((dp466
Vcontains(u)
p467
I00
sVcontains(O)
p468
I01
sVcontains(M)
p469
I00
sVcontains(S)
p470
I01
sVcontains(Q)
p471
I00
sVcontains(d)
p472
I00
sVcontains(W)
p473
I00
sVcontains(C)
p474
I01
sVcontains(A)
p475
I01
sVcontains(o)
p476
I00
sVcontains(T)
p477
I00
sVcontains(Z)
p478
I00
sVcontains(G)
p479
I00
sVcontains(E)
p480
I00
sVcontains(s)
p481
I00
sVcontains(K)
p482
I00
sVcontains(I)
p483
I00
sVcontains(c)
p484
I00
sVcontains(H)
p485
I00
sVcontains(N)
p486
I01
sVcontains(g)
p487
I00
sVcontains(L)
p488
I00
sVcontains(e)
p489
I00
sVcontains(R)
p490
I00
sVcontains(P)
p491
I00
sVcontains(V)
p492
I00
sVcontains(U)
p493
I00
sVcontains(B)
p494
I00
sVcontains(h)
p495
I00
sVcontains(Y)
p496
I00
sVcontains(F)
p497
I00
sVcontains(D)
p498
I00
sVcontains(J)
p499
I00
sg44
tp500
a((dp501
Vcontains(u)
p502
I00
sVcontains(O)
p503
I00
sVcontains(M)
p504
I00
sVcontains(S)
p505
I00
sVcontains(Q)
p506
I00
sVcontains(d)
p507
I00
sVcontains(W)
p508
I00
sVcontains(C)
p509
I00
sVcontains(A)
p510
I01
sVcontains(o)
p511
I00
sVcontains(T)
p512
I00
sVcontains(Z)
p513
I00
sVcontains(G)
p514
I00
sVcontains(E)
p515
I00
sVcontains(s)
p516
I00
sVcontains(K)
p517
I00
sVcontains(I)
p518
I00
sVcontains(c)
p519
I00
sVcontains(H)
p520
I00
sVcontains(N)
p521
I01
sVcontains(g)
p522
I00
sVcontains(L)
p523
I00
sVcontains(e)
p524
I00
sVcontains(R)
p525
I00
sVcontains(P)
p526
I01
sVcontains(V)
p527
I00
sVcontains(U)
p528
I00
sVcontains(B)
p529
I00
sVcontains(h)
p530
I00
sVcontains(Y)
p531
I00
sVcontains(F)
p532
I00
sVcontains(D)
p533
I00
sVcontains(J)
p534
I00
sg44
tp535
a((dp536
Vcontains(u)
p537
I00
sVcontains(O)
p538
I00
sVcontains(M)
p539
I00
sVcontains(S)
p540
I00
sVcontains(Q)
p541
I00
sVcontains(d)
p542
I00
sVcontains(W)
p543
I00
sVcontains(C)
p544
I00
sVcontains(A)
p545
I01
sVcontains(o)
p546
I00
sVcontains(T)
p547
I00
sVcontains(Z)
p548
I00
sVcontains(G)
p549
I00
sVcontains(E)
p550
I00
sVcontains(s)
p551
I00
sVcontains(K)
p552
I00
sVcontains(I)
p553
I00
sVcontains(c)
p554
I00
sVcontains(H)
p555
I00
sVcontains(N)
p556
I01
sVcontains(g)
p557
I00
sVcontains(L)
p558
I00
sVcontains(e)
p559
I00
sVcontains(R)
p560
I01
sVcontains(P)
p561
I01
sVcontains(V)
p562
I00
sVcontains(U)
p563
I00
sVcontains(B)
p564
I00
sVcontains(h)
p565
I00
sVcontains(Y)
p566
I00
sVcontains(F)
p567
I00
sVcontains(D)
p568
I00
sVcontains(J)
p569
I00
sg44
tp570
a((dp571
Vcontains(u)
p572
I00
sVcontains(O)
p573
I00
sVcontains(M)
p574
I00
sVcontains(S)
p575
I00
sVcontains(Q)
p576
I00
sVcontains(d)
p577
I00
sVcontains(W)
p578
I00
sVcontains(C)
p579
I00
sVcontains(A)
p580
I01
sVcontains(o)
p581
I00
sVcontains(T)
p582
I00
sVcontains(Z)
p583
I00
sVcontains(G)
p584
I00
sVcontains(E)
p585
I00
sVcontains(s)
p586
I00
sVcontains(K)
p587
I00
sVcontains(I)
p588
I00
sVcontains(c)
p589
I00
sVcontains(H)
p590
I00
sVcontains(N)
p591
I01
sVcontains(g)
p592
I00
sVcontains(L)
p593
I00
sVcontains(e)
p594
I00
sVcontains(R)
p595
I01
sVcontains(P)
p596
I01
sVcontains(V)
p597
I00
sVcontains(U)
p598
I00
sVcontains(B)
p599
I00
sVcontains(h)
p600
I00
sVcontains(Y)
p601
I00
sVcontains(F)
p602
I00
sVcontains(D)
p603
I00
sVcontains(J)
p604
I00
sg44
tp605
a((dp606
Vcontains(u)
p607
I00
sVcontains(O)
p608
I00
sVcontains(M)
p609
I00
sVcontains(S)
p610
I00
sVcontains(Q)
p611
I00
sVcontains(d)
p612
I00
sVcontains(W)
p613
I00
sVcontains(C)
p614
I00
sVcontains(A)
p615
I01
sVcontains(o)
p616
I00
sVcontains(T)
p617
I01
sVcontains(Z)
p618
I00
sVcontains(G)
p619
I00
sVcontains(E)
p620
I00
sVcontains(s)
p621
I00
sVcontains(K)
p622
I00
sVcontains(I)
p623
I00
sVcontains(c)
p624
I00
sVcontains(H)
p625
I00
sVcontains(N)
p626
I00
sVcontains(g)
p627
I00
sVcontains(L)
p628
I00
sVcontains(e)
p629
I00
sVcontains(R)
p630
I01
sVcontains(P)
p631
I00
sVcontains(V)
p632
I00
sVcontains(U)
p633
I00
sVcontains(B)
p634
I00
sVcontains(h)
p635
I00
sVcontains(Y)
p636
I00
sVcontains(F)
p637
I00
sVcontains(D)
p638
I00
sVcontains(J)
p639
I00
sg44
tp640
a((dp641
Vcontains(u)
p642
I00
sVcontains(O)
p643
I00
sVcontains(M)
p644
I00
sVcontains(S)
p645
I00
sVcontains(Q)
p646
I00
sVcontains(d)
p647
I00
sVcontains(W)
p648
I00
sVcontains(C)
p649
I00
sVcontains(A)
p650
I01
sVcontains(o)
p651
I00
sVcontains(T)
p652
I01
sVcontains(Z)
p653
I00
sVcontains(G)
p654
I00
sVcontains(E)
p655
I00
sVcontains(s)
p656
I00
sVcontains(K)
p657
I00
sVcontains(I)
p658
I00
sVcontains(c)
p659
I00
sVcontains(H)
p660
I00
sVcontains(N)
p661
I00
sVcontains(g)
p662
I00
sVcontains(L)
p663
I00
sVcontains(e)
p664
I00
sVcontains(R)
p665
I01
sVcontains(P)
p666
I00
sVcontains(V)
p667
I00
sVcontains(U)
p668
I00
sVcontains(B)
p669
I00
sVcontains(h)
p670
I00
sVcontains(Y)
p671
I00
sVcontains(F)
p672
I00
sVcontains(D)
p673
I00
sVcontains(J)
p674
I00
sg44
tp675
a((dp676
Vcontains(u)
p677
I00
sVcontains(O)
p678
I00
sVcontains(M)
p679
I00
sVcontains(S)
p680
I01
sVcontains(Q)
p681
I00
sVcontains(d)
p682
I00
sVcontains(W)
p683
I00
sVcontains(C)
p684
I01
sVcontains(A)
p685
I01
sVcontains(o)
p686
I00
sVcontains(T)
p687
I00
sVcontains(Z)
p688
I00
sVcontains(G)
p689
I00
sVcontains(E)
p690
I00
sVcontains(s)
p691
I00
sVcontains(K)
p692
I00
sVcontains(I)
p693
I00
sVcontains(c)
p694
I00
sVcontains(H)
p695
I00
sVcontains(N)
p696
I00
sVcontains(g)
p697
I00
sVcontains(L)
p698
I00
sVcontains(e)
p699
I00
sVcontains(R)
p700
I00
sVcontains(P)
p701
I01
sVcontains(V)
p702
I00
sVcontains(U)
p703
I00
sVcontains(B)
p704
I00
sVcontains(h)
p705
I00
sVcontains(Y)
p706
I00
sVcontains(F)
p707
I00
sVcontains(D)
p708
I00
sVcontains(J)
p709
I00
sg44
tp710
a((dp711
Vcontains(u)
p712
I00
sVcontains(O)
p713
I00
sVcontains(M)
p714
I00
sVcontains(S)
p715
I01
sVcontains(Q)
p716
I00
sVcontains(d)
p717
I00
sVcontains(W)
p718
I00
sVcontains(C)
p719
I00
sVcontains(A)
p720
I01
sVcontains(o)
p721
I00
sVcontains(T)
p722
I00
sVcontains(Z)
p723
I00
sVcontains(G)
p724
I00
sVcontains(E)
p725
I00
sVcontains(s)
p726
I00
sVcontains(K)
p727
I00
sVcontains(I)
p728
I00
sVcontains(c)
p729
I00
sVcontains(H)
p730
I00
sVcontains(N)
p731
I01
sVcontains(g)
p732
I00
sVcontains(L)
p733
I00
sVcontains(e)
p734
I00
sVcontains(R)
p735
I00
sVcontains(P)
p736
I00
sVcontains(V)
p737
I00
sVcontains(U)
p738
I00
sVcontains(B)
p739
I00
sVcontains(h)
p740
I00
sVcontains(Y)
p741
I00
sVcontains(F)
p742
I00
sVcontains(D)
p743
I00
sVcontains(J)
p744
I00
sg44
tp745
a((dp746
Vcontains(u)
p747
I00
sVcontains(O)
p748
I00
sVcontains(M)
p749
I00
sVcontains(S)
p750
I01
sVcontains(Q)
p751
I00
sVcontains(d)
p752
I00
sVcontains(W)
p753
I00
sVcontains(C)
p754
I01
sVcontains(A)
p755
I01
sVcontains(o)
p756
I00
sVcontains(T)
p757
I00
sVcontains(Z)
p758
I00
sVcontains(G)
p759
I00
sVcontains(E)
p760
I00
sVcontains(s)
p761
I00
sVcontains(K)
p762
I00
sVcontains(I)
p763
I00
sVcontains(c)
p764
I00
sVcontains(H)
p765
I00
sVcontains(N)
p766
I01
sVcontains(g)
p767
I00
sVcontains(L)
p768
I00
sVcontains(e)
p769
I00
sVcontains(R)
p770
I00
sVcontains(P)
p771
I00
sVcontains(V)
p772
I00
sVcontains(U)
p773
I00
sVcontains(B)
p774
I00
sVcontains(h)
p775
I00
sVcontains(Y)
p776
I00
sVcontains(F)
p777
I00
sVcontains(D)
p778
I00
sVcontains(J)
p779
I00
sg44
tp780
a((dp781
Vcontains(u)
p782
I00
sVcontains(O)
p783
I01
sVcontains(M)
p784
I00
sVcontains(S)
p785
I01
sVcontains(Q)
p786
I00
sVcontains(d)
p787
I00
sVcontains(W)
p788
I00
sVcontains(C)
p789
I00
sVcontains(A)
p790
I01
sVcontains(o)
p791
I00
sVcontains(T)
p792
I00
sVcontains(Z)
p793
I00
sVcontains(G)
p794
I00
sVcontains(E)
p795
I00
sVcontains(s)
p796
I00
sVcontains(K)
p797
I00
sVcontains(I)
p798
I00
sVcontains(c)
p799
I00
sVcontains(H)
p800
I00
sVcontains(N)
p801
I00
sVcontains(g)
p802
I00
sVcontains(L)
p803
I00
sVcontains(e)
p804
I00
sVcontains(R)
p805
I00
sVcontains(P)
p806
I01
sVcontains(V)
p807
I00
sVcontains(U)
p808
I00
sVcontains(B)
p809
I00
sVcontains(h)
p810
I00
sVcontains(Y)
p811
I00
sVcontains(F)
p812
I00
sVcontains(D)
p813
I00
sVcontains(J)
p814
I00
sg44
tp815
a((dp816
Vcontains(u)
p817
I00
sVcontains(O)
p818
I00
sVcontains(M)
p819
I00
sVcontains(S)
p820
I00
sVcontains(Q)
p821
I00
sVcontains(d)
p822
I00
sVcontains(W)
p823
I00
sVcontains(C)
p824
I01
sVcontains(A)
p825
I01
sVcontains(o)
p826
I00
sVcontains(T)
p827
I01
sVcontains(Z)
p828
I00
sVcontains(G)
p829
I00
sVcontains(E)
p830
I00
sVcontains(s)
p831
I00
sVcontains(K)
p832
I00
sVcontains(I)
p833
I00
sVcontains(c)
p834
I00
sVcontains(H)
p835
I00
sVcontains(N)
p836
I00
sVcontains(g)
p837
I00
sVcontains(L)
p838
I00
sVcontains(e)
p839
I00
sVcontains(R)
p840
I00
sVcontains(P)
p841
I00
sVcontains(V)
p842
I00
sVcontains(U)
p843
I00
sVcontains(B)
p844
I00
sVcontains(h)
p845
I00
sVcontains(Y)
p846
I00
sVcontains(F)
p847
I00
sVcontains(D)
p848
I00
sVcontains(J)
p849
I00
sg44
tp850
a((dp851
Vcontains(u)
p852
I00
sVcontains(O)
p853
I00
sVcontains(M)
p854
I00
sVcontains(S)
p855
I00
sVcontains(Q)
p856
I00
sVcontains(d)
p857
I00
sVcontains(W)
p858
I00
sVcontains(C)
p859
I00
sVcontains(A)
p860
I01
sVcontains(o)
p861
I01
sVcontains(T)
p862
I00
sVcontains(Z)
p863
I00
sVcontains(G)
p864
I00
sVcontains(E)
p865
I00
sVcontains(s)
p866
I01
sVcontains(K)
p867
I00
sVcontains(I)
p868
I00
sVcontains(c)
p869
I01
sVcontains(H)
p870
I00
sVcontains(N)
p871
I00
sVcontains(g)
p872
I00
sVcontains(L)
p873
I00
sVcontains(e)
p874
I00
sVcontains(R)
p875
I00
sVcontains(P)
p876
I00
sVcontains(V)
p877
I00
sVcontains(U)
p878
I00
sVcontains(B)
p879
I00
sVcontains(h)
p880
I00
sVcontains(Y)
p881
I00
sVcontains(F)
p882
I00
sVcontains(D)
p883
I00
sVcontains(J)
p884
I00
sg44
tp885
a((dp886
Vcontains(u)
p887
I01
sVcontains(O)
p888
I00
sVcontains(M)
p889
I00
sVcontains(S)
p890
I00
sVcontains(Q)
p891
I00
sVcontains(d)
p892
I00
sVcontains(W)
p893
I00
sVcontains(C)
p894
I00
sVcontains(A)
p895
I01
sVcontains(o)
p896
I00
sVcontains(T)
p897
I00
sVcontains(Z)
p898
I00
sVcontains(G)
p899
I00
sVcontains(E)
p900
I00
sVcontains(s)
p901
I00
sVcontains(K)
p902
I00
sVcontains(I)
p903
I00
sVcontains(c)
p904
I00
sVcontains(H)
p905
I00
sVcontains(N)
p906
I00
sVcontains(g)
p907
I00
sVcontains(L)
p908
I00
sVcontains(e)
p909
I00
sVcontains(R)
p910
I00
sVcontains(P)
p911
I00
sVcontains(V)
p912
I00
sVcontains(U)
p913
I00
sVcontains(B)
p914
I00
sVcontains(h)
p915
I00
sVcontains(Y)
p916
I00
sVcontains(F)
p917
I00
sVcontains(D)
p918
I01
sVcontains(J)
p919
I00
sg44
tp920
a((dp921
Vcontains(u)
p922
I00
sVcontains(O)
p923
I00
sVcontains(M)
p924
I01
sVcontains(S)
p925
I00
sVcontains(Q)
p926
I00
sVcontains(d)
p927
I00
sVcontains(W)
p928
I00
sVcontains(C)
p929
I01
sVcontains(A)
p930
I01
sVcontains(o)
p931
I00
sVcontains(T)
p932
I00
sVcontains(Z)
p933
I00
sVcontains(G)
p934
I00
sVcontains(E)
p935
I00
sVcontains(s)
p936
I00
sVcontains(K)
p937
I00
sVcontains(I)
p938
I00
sVcontains(c)
p939
I00
sVcontains(H)
p940
I00
sVcontains(N)
p941
I00
sVcontains(g)
p942
I00
sVcontains(L)
p943
I00
sVcontains(e)
p944
I00
sVcontains(R)
p945
I00
sVcontains(P)
p946
I00
sVcontains(V)
p947
I00
sVcontains(U)
p948
I00
sVcontains(B)
p949
I01
sVcontains(h)
p950
I00
sVcontains(Y)
p951
I00
sVcontains(F)
p952
I00
sVcontains(D)
p953
I01
sVcontains(J)
p954
I00
sg44
tp955
a((dp956
Vcontains(u)
p957
I00
sVcontains(O)
p958
I00
sVcontains(M)
p959
I00
sVcontains(S)
p960
I01
sVcontains(Q)
p961
I00
sVcontains(d)
p962
I00
sVcontains(W)
p963
I00
sVcontains(C)
p964
I00
sVcontains(A)
p965
I00
sVcontains(o)
p966
I00
sVcontains(T)
p967
I00
sVcontains(Z)
p968
I00
sVcontains(G)
p969
I00
sVcontains(E)
p970
I00
sVcontains(s)
p971
I00
sVcontains(K)
p972
I00
sVcontains(I)
p973
I00
sVcontains(c)
p974
I00
sVcontains(H)
p975
I00
sVcontains(N)
p976
I00
sVcontains(g)
p977
I00
sVcontains(L)
p978
I00
sVcontains(e)
p979
I00
sVcontains(R)
p980
I00
sVcontains(P)
p981
I00
sVcontains(V)
p982
I00
sVcontains(U)
p983
I00
sVcontains(B)
p984
I01
sVcontains(h)
p985
I00
sVcontains(Y)
p986
I00
sVcontains(F)
p987
I00
sVcontains(D)
p988
I00
sVcontains(J)
p989
I00
sg44
tp990
a((dp991
Vcontains(u)
p992
I00
sVcontains(O)
p993
I00
sVcontains(M)
p994
I00
sVcontains(S)
p995
I00
sVcontains(Q)
p996
I00
sVcontains(d)
p997
I00
sVcontains(W)
p998
I00
sVcontains(C)
p999
I00
sVcontains(A)
p1000
I01
sVcontains(o)
p1001
I00
sVcontains(T)
p1002
I00
sVcontains(Z)
p1003
I00
sVcontains(G)
p1004
I00
sVcontains(E)
p1005
I00
sVcontains(s)
p1006
I00
sVcontains(K)
p1007
I00
sVcontains(I)
p1008
I00
sVcontains(c)
p1009
I00
sVcontains(H)
p1010
I00
sVcontains(N)
p1011
I00
sVcontains(g)
p1012
I00
sVcontains(L)
p1013
I00
sVcontains(e)
p1014
I00
sVcontains(R)
p1015
I00
sVcontains(P)
p1016
I00
sVcontains(V)
p1017
I00
sVcontains(U)
p1018
I00
sVcontains(B)
p1019
I01
sVcontains(h)
p1020
I00
sVcontains(Y)
p1021
I00
sVcontains(F)
p1022
I00
sVcontains(D)
p1023
I00
sVcontains(J)
p1024
I00
sg44
tp1025
a((dp1026
Vcontains(u)
p1027
I00
sVcontains(O)
p1028
I01
sVcontains(M)
p1029
I00
sVcontains(S)
p1030
I00
sVcontains(Q)
p1031
I00
sVcontains(d)
p1032
I00
sVcontains(W)
p1033
I00
sVcontains(C)
p1034
I00
sVcontains(A)
p1035
I01
sVcontains(o)
p1036
I00
sVcontains(T)
p1037
I00
sVcontains(Z)
p1038
I00
sVcontains(G)
p1039
I00
sVcontains(E)
p1040
I00
sVcontains(s)
p1041
I00
sVcontains(K)
p1042
I00
sVcontains(I)
p1043
I00
sVcontains(c)
p1044
I00
sVcontains(H)
p1045
I00
sVcontains(N)
p1046
I00
sVcontains(g)
p1047
I00
sVcontains(L)
p1048
I00
sVcontains(e)
p1049
I00
sVcontains(R)
p1050
I00
sVcontains(P)
p1051
I00
sVcontains(V)
p1052
I00
sVcontains(U)
p1053
I00
sVcontains(B)
p1054
I01
sVcontains(h)
p1055
I00
sVcontains(Y)
p1056
I00
sVcontains(F)
p1057
I00
sVcontains(D)
p1058
I00
sVcontains(J)
p1059
I00
sg44
tp1060
a((dp1061
Vcontains(u)
p1062
I00
sVcontains(O)
p1063
I00
sVcontains(M)
p1064
I00
sVcontains(S)
p1065
I01
sVcontains(Q)
p1066
I00
sVcontains(d)
p1067
I00
sVcontains(W)
p1068
I00
sVcontains(C)
p1069
I01
sVcontains(A)
p1070
I00
sVcontains(o)
p1071
I00
sVcontains(T)
p1072
I00
sVcontains(Z)
p1073
I00
sVcontains(G)
p1074
I00
sVcontains(E)
p1075
I00
sVcontains(s)
p1076
I00
sVcontains(K)
p1077
I00
sVcontains(I)
p1078
I00
sVcontains(c)
p1079
I00
sVcontains(H)
p1080
I00
sVcontains(N)
p1081
I00
sVcontains(g)
p1082
I00
sVcontains(L)
p1083
I01
sVcontains(e)
p1084
I00
sVcontains(R)
p1085
I00
sVcontains(P)
p1086
I00
sVcontains(V)
p1087
I00
sVcontains(U)
p1088
I00
sVcontains(B)
p1089
I01
sVcontains(h)
p1090
I00
sVcontains(Y)
p1091
I00
sVcontains(F)
p1092
I00
sVcontains(D)
p1093
I00
sVcontains(J)
p1094
I00
sg44
tp1095
a((dp1096
Vcontains(u)
p1097
I00
sVcontains(O)
p1098
I00
sVcontains(M)
p1099
I00
sVcontains(S)
p1100
I01
sVcontains(Q)
p1101
I00
sVcontains(d)
p1102
I00
sVcontains(W)
p1103
I00
sVcontains(C)
p1104
I00
sVcontains(A)
p1105
I00
sVcontains(o)
p1106
I00
sVcontains(T)
p1107
I00
sVcontains(Z)
p1108
I00
sVcontains(G)
p1109
I00
sVcontains(E)
p1110
I00
sVcontains(s)
p1111
I00
sVcontains(K)
p1112
I00
sVcontains(I)
p1113
I00
sVcontains(c)
p1114
I00
sVcontains(H)
p1115
I01
sVcontains(N)
p1116
I00
sVcontains(g)
p1117
I00
sVcontains(L)
p1118
I00
sVcontains(e)
p1119
I00
sVcontains(R)
p1120
I00
sVcontains(P)
p1121
I00
sVcontains(V)
p1122
I00
sVcontains(U)
p1123
I00
sVcontains(B)
p1124
I01
sVcontains(h)
p1125
I00
sVcontains(Y)
p1126
I00
sVcontains(F)
p1127
I00
sVcontains(D)
p1128
I00
sVcontains(J)
p1129
I00
sg44
tp1130
a((dp1131
Vcontains(u)
p1132
I00
sVcontains(O)
p1133
I00
sVcontains(M)
p1134
I00
sVcontains(S)
p1135
I01
sVcontains(Q)
p1136
I00
sVcontains(d)
p1137
I00
sVcontains(W)
p1138
I00
sVcontains(C)
p1139
I00
sVcontains(A)
p1140
I00
sVcontains(o)
p1141
I00
sVcontains(T)
p1142
I00
sVcontains(Z)
p1143
I00
sVcontains(G)
p1144
I00
sVcontains(E)
p1145
I00
sVcontains(s)
p1146
I01
sVcontains(K)
p1147
I00
sVcontains(I)
p1148
I00
sVcontains(c)
p1149
I01
sVcontains(H)
p1150
I01
sVcontains(N)
p1151
I01
sVcontains(g)
p1152
I01
sVcontains(L)
p1153
I00
sVcontains(e)
p1154
I00
sVcontains(R)
p1155
I00
sVcontains(P)
p1156
I00
sVcontains(V)
p1157
I00
sVcontains(U)
p1158
I00
sVcontains(B)
p1159
I01
sVcontains(h)
p1160
I00
sVcontains(Y)
p1161
I00
sVcontains(F)
p1162
I00
sVcontains(D)
p1163
I00
sVcontains(J)
p1164
I00
sg44
tp1165
a((dp1166
Vcontains(u)
p1167
I00
sVcontains(O)
p1168
I00
sVcontains(M)
p1169
I01
sVcontains(S)
p1170
I00
sVcontains(Q)
p1171
I00
sVcontains(d)
p1172
I00
sVcontains(W)
p1173
I00
sVcontains(C)
p1174
I00
sVcontains(A)
p1175
I00
sVcontains(o)
p1176
I00
sVcontains(T)
p1177
I00
sVcontains(Z)
p1178
I00
sVcontains(G)
p1179
I00
sVcontains(E)
p1180
I00
sVcontains(s)
p1181
I00
sVcontains(K)
p1182
I00
sVcontains(I)
p1183
I00
sVcontains(c)
p1184
I00
sVcontains(H)
p1185
I00
sVcontains(N)
p1186
I00
sVcontains(g)
p1187
I00
sVcontains(L)
p1188
I00
sVcontains(e)
p1189
I00
sVcontains(R)
p1190
I00
sVcontains(P)
p1191
I00
sVcontains(V)
p1192
I00
sVcontains(U)
p1193
I00
sVcontains(B)
p1194
I01
sVcontains(h)
p1195
I00
sVcontains(Y)
p1196
I00
sVcontains(F)
p1197
I00
sVcontains(D)
p1198
I00
sVcontains(J)
p1199
I00
sg44
tp1200
a((dp1201
Vcontains(u)
p1202
I00
sVcontains(O)
p1203
I00
sVcontains(M)
p1204
I01
sVcontains(S)
p1205
I00
sVcontains(Q)
p1206
I00
sVcontains(d)
p1207
I00
sVcontains(W)
p1208
I00
sVcontains(C)
p1209
I01
sVcontains(A)
p1210
I00
sVcontains(o)
p1211
I00
sVcontains(T)
p1212
I00
sVcontains(Z)
p1213
I00
sVcontains(G)
p1214
I00
sVcontains(E)
p1215
I00
sVcontains(s)
p1216
I00
sVcontains(K)
p1217
I00
sVcontains(I)
p1218
I00
sVcontains(c)
p1219
I00
sVcontains(H)
p1220
I00
sVcontains(N)
p1221
I00
sVcontains(g)
p1222
I00
sVcontains(L)
p1223
I00
sVcontains(e)
p1224
I00
sVcontains(R)
p1225
I00
sVcontains(P)
p1226
I00
sVcontains(V)
p1227
I00
sVcontains(U)
p1228
I00
sVcontains(B)
p1229
I01
sVcontains(h)
p1230
I01
sVcontains(Y)
p1231
I00
sVcontains(F)
p1232
I00
sVcontains(D)
p1233
I00
sVcontains(J)
p1234
I00
sg44
tp1235
a((dp1236
Vcontains(u)
p1237
I00
sVcontains(O)
p1238
I00
sVcontains(M)
p1239
I01
sVcontains(S)
p1240
I01
sVcontains(Q)
p1241
I00
sVcontains(d)
p1242
I00
sVcontains(W)
p1243
I00
sVcontains(C)
p1244
I00
sVcontains(A)
p1245
I00
sVcontains(o)
p1246
I00
sVcontains(T)
p1247
I00
sVcontains(Z)
p1248
I00
sVcontains(G)
p1249
I00
sVcontains(E)
p1250
I00
sVcontains(s)
p1251
I00
sVcontains(K)
p1252
I00
sVcontains(I)
p1253
I00
sVcontains(c)
p1254
I00
sVcontains(H)
p1255
I00
sVcontains(N)
p1256
I00
sVcontains(g)
p1257
I00
sVcontains(L)
p1258
I00
sVcontains(e)
p1259
I00
sVcontains(R)
p1260
I00
sVcontains(P)
p1261
I00
sVcontains(V)
p1262
I00
sVcontains(U)
p1263
I00
sVcontains(B)
p1264
I01
sVcontains(h)
p1265
I00
sVcontains(Y)
p1266
I00
sVcontains(F)
p1267
I00
sVcontains(D)
p1268
I00
sVcontains(J)
p1269
I00
sg44
tp1270
a((dp1271
Vcontains(u)
p1272
I00
sVcontains(O)
p1273
I00
sVcontains(M)
p1274
I01
sVcontains(S)
p1275
I01
sVcontains(Q)
p1276
I00
sVcontains(d)
p1277
I00
sVcontains(W)
p1278
I00
sVcontains(C)
p1279
I00
sVcontains(A)
p1280
I00
sVcontains(o)
p1281
I00
sVcontains(T)
p1282
I00
sVcontains(Z)
p1283
I00
sVcontains(G)
p1284
I00
sVcontains(E)
p1285
I00
sVcontains(s)
p1286
I00
sVcontains(K)
p1287
I00
sVcontains(I)
p1288
I00
sVcontains(c)
p1289
I00
sVcontains(H)
p1290
I00
sVcontains(N)
p1291
I00
sVcontains(g)
p1292
I00
sVcontains(L)
p1293
I00
sVcontains(e)
p1294
I00
sVcontains(R)
p1295
I00
sVcontains(P)
p1296
I00
sVcontains(V)
p1297
I00
sVcontains(U)
p1298
I00
sVcontains(B)
p1299
I01
sVcontains(h)
p1300
I00
sVcontains(Y)
p1301
I00
sVcontains(F)
p1302
I00
sVcontains(D)
p1303
I00
sVcontains(J)
p1304
I00
sg44
tp1305
a((dp1306
Vcontains(u)
p1307
I00
sVcontains(O)
p1308
I00
sVcontains(M)
p1309
I01
sVcontains(S)
p1310
I01
sVcontains(Q)
p1311
I00
sVcontains(d)
p1312
I00
sVcontains(W)
p1313
I00
sVcontains(C)
p1314
I00
sVcontains(A)
p1315
I00
sVcontains(o)
p1316
I00
sVcontains(T)
p1317
I00
sVcontains(Z)
p1318
I00
sVcontains(G)
p1319
I00
sVcontains(E)
p1320
I00
sVcontains(s)
p1321
I00
sVcontains(K)
p1322
I00
sVcontains(I)
p1323
I00
sVcontains(c)
p1324
I00
sVcontains(H)
p1325
I00
sVcontains(N)
p1326
I00
sVcontains(g)
p1327
I00
sVcontains(L)
p1328
I00
sVcontains(e)
p1329
I00
sVcontains(R)
p1330
I00
sVcontains(P)
p1331
I00
sVcontains(V)
p1332
I00
sVcontains(U)
p1333
I00
sVcontains(B)
p1334
I01
sVcontains(h)
p1335
I00
sVcontains(Y)
p1336
I00
sVcontains(F)
p1337
I00
sVcontains(D)
p1338
I00
sVcontains(J)
p1339
I00
sg44
tp1340
a((dp1341
Vcontains(u)
p1342
I00
sVcontains(O)
p1343
I00
sVcontains(M)
p1344
I01
sVcontains(S)
p1345
I00
sVcontains(Q)
p1346
I00
sVcontains(d)
p1347
I01
sVcontains(W)
p1348
I00
sVcontains(C)
p1349
I00
sVcontains(A)
p1350
I00
sVcontains(o)
p1351
I00
sVcontains(T)
p1352
I00
sVcontains(Z)
p1353
I00
sVcontains(G)
p1354
I00
sVcontains(E)
p1355
I00
sVcontains(s)
p1356
I00
sVcontains(K)
p1357
I00
sVcontains(I)
p1358
I00
sVcontains(c)
p1359
I01
sVcontains(H)
p1360
I00
sVcontains(N)
p1361
I00
sVcontains(g)
p1362
I00
sVcontains(L)
p1363
I00
sVcontains(e)
p1364
I01
sVcontains(R)
p1365
I00
sVcontains(P)
p1366
I00
sVcontains(V)
p1367
I00
sVcontains(U)
p1368
I00
sVcontains(B)
p1369
I01
sVcontains(h)
p1370
I00
sVcontains(Y)
p1371
I00
sVcontains(F)
p1372
I00
sVcontains(D)
p1373
I00
sVcontains(J)
p1374
I00
sg44
tp1375
a((dp1376
Vcontains(u)
p1377
I00
sVcontains(O)
p1378
I00
sVcontains(M)
p1379
I01
sVcontains(S)
p1380
I00
sVcontains(Q)
p1381
I00
sVcontains(d)
p1382
I01
sVcontains(W)
p1383
I00
sVcontains(C)
p1384
I00
sVcontains(A)
p1385
I00
sVcontains(o)
p1386
I00
sVcontains(T)
p1387
I00
sVcontains(Z)
p1388
I00
sVcontains(G)
p1389
I00
sVcontains(E)
p1390
I00
sVcontains(s)
p1391
I00
sVcontains(K)
p1392
I00
sVcontains(I)
p1393
I00
sVcontains(c)
p1394
I00
sVcontains(H)
p1395
I00
sVcontains(N)
p1396
I00
sVcontains(g)
p1397
I00
sVcontains(L)
p1398
I00
sVcontains(e)
p1399
I01
sVcontains(R)
p1400
I00
sVcontains(P)
p1401
I00
sVcontains(V)
p1402
I00
sVcontains(U)
p1403
I00
sVcontains(B)
p1404
I01
sVcontains(h)
p1405
I00
sVcontains(Y)
p1406
I00
sVcontains(F)
p1407
I00
sVcontains(D)
p1408
I01
sVcontains(J)
p1409
I00
sg44
tp1410
a((dp1411
Vcontains(u)
p1412
I00
sVcontains(O)
p1413
I00
sVcontains(M)
p1414
I01
sVcontains(S)
p1415
I01
sVcontains(Q)
p1416
I00
sVcontains(d)
p1417
I01
sVcontains(W)
p1418
I00
sVcontains(C)
p1419
I00
sVcontains(A)
p1420
I00
sVcontains(o)
p1421
I00
sVcontains(T)
p1422
I00
sVcontains(Z)
p1423
I00
sVcontains(G)
p1424
I00
sVcontains(E)
p1425
I00
sVcontains(s)
p1426
I00
sVcontains(K)
p1427
I00
sVcontains(I)
p1428
I00
sVcontains(c)
p1429
I01
sVcontains(H)
p1430
I00
sVcontains(N)
p1431
I00
sVcontains(g)
p1432
I00
sVcontains(L)
p1433
I00
sVcontains(e)
p1434
I01
sVcontains(R)
p1435
I00
sVcontains(P)
p1436
I00
sVcontains(V)
p1437
I00
sVcontains(U)
p1438
I00
sVcontains(B)
p1439
I01
sVcontains(h)
p1440
I00
sVcontains(Y)
p1441
I00
sVcontains(F)
p1442
I00
sVcontains(D)
p1443
I01
sVcontains(J)
p1444
I00
sg44
tp1445
a((dp1446
Vcontains(u)
p1447
I00
sVcontains(O)
p1448
I00
sVcontains(M)
p1449
I00
sVcontains(S)
p1450
I01
sVcontains(Q)
p1451
I00
sVcontains(d)
p1452
I00
sVcontains(W)
p1453
I00
sVcontains(C)
p1454
I00
sVcontains(A)
p1455
I00
sVcontains(o)
p1456
I00
sVcontains(T)
p1457
I00
sVcontains(Z)
p1458
I00
sVcontains(G)
p1459
I00
sVcontains(E)
p1460
I00
sVcontains(s)
p1461
I00
sVcontains(K)
p1462
I00
sVcontains(I)
p1463
I00
sVcontains(c)
p1464
I00
sVcontains(H)
p1465
I00
sVcontains(N)
p1466
I00
sVcontains(g)
p1467
I00
sVcontains(L)
p1468
I00
sVcontains(e)
p1469
I00
sVcontains(R)
p1470
I00
sVcontains(P)
p1471
I00
sVcontains(V)
p1472
I00
sVcontains(U)
p1473
I00
sVcontains(B)
p1474
I01
sVcontains(h)
p1475
I00
sVcontains(Y)
p1476
I00
sVcontains(F)
p1477
I00
sVcontains(D)
p1478
I00
sVcontains(J)
p1479
I00
sg44
tp1480
a((dp1481
Vcontains(u)
p1482
I00
sVcontains(O)
p1483
I00
sVcontains(M)
p1484
I00
sVcontains(S)
p1485
I01
sVcontains(Q)
p1486
I00
sVcontains(d)
p1487
I00
sVcontains(W)
p1488
I00
sVcontains(C)
p1489
I00
sVcontains(A)
p1490
I00
sVcontains(o)
p1491
I00
sVcontains(T)
p1492
I00
sVcontains(Z)
p1493
I00
sVcontains(G)
p1494
I00
sVcontains(E)
p1495
I00
sVcontains(s)
p1496
I00
sVcontains(K)
p1497
I00
sVcontains(I)
p1498
I00
sVcontains(c)
p1499
I00
sVcontains(H)
p1500
I00
sVcontains(N)
p1501
I01
sVcontains(g)
p1502
I00
sVcontains(L)
p1503
I00
sVcontains(e)
p1504
I00
sVcontains(R)
p1505
I00
sVcontains(P)
p1506
I00
sVcontains(V)
p1507
I00
sVcontains(U)
p1508
I00
sVcontains(B)
p1509
I01
sVcontains(h)
p1510
I00
sVcontains(Y)
p1511
I00
sVcontains(F)
p1512
I00
sVcontains(D)
p1513
I00
sVcontains(J)
p1514
I00
sg44
tp1515
a((dp1516
Vcontains(u)
p1517
I00
sVcontains(O)
p1518
I00
sVcontains(M)
p1519
I00
sVcontains(S)
p1520
I01
sVcontains(Q)
p1521
I00
sVcontains(d)
p1522
I00
sVcontains(W)
p1523
I00
sVcontains(C)
p1524
I00
sVcontains(A)
p1525
I00
sVcontains(o)
p1526
I00
sVcontains(T)
p1527
I00
sVcontains(Z)
p1528
I00
sVcontains(G)
p1529
I00
sVcontains(E)
p1530
I00
sVcontains(s)
p1531
I00
sVcontains(K)
p1532
I00
sVcontains(I)
p1533
I00
sVcontains(c)
p1534
I00
sVcontains(H)
p1535
I01
sVcontains(N)
p1536
I00
sVcontains(g)
p1537
I00
sVcontains(L)
p1538
I00
sVcontains(e)
p1539
I00
sVcontains(R)
p1540
I00
sVcontains(P)
p1541
I01
sVcontains(V)
p1542
I00
sVcontains(U)
p1543
I00
sVcontains(B)
p1544
I01
sVcontains(h)
p1545
I00
sVcontains(Y)
p1546
I00
sVcontains(F)
p1547
I00
sVcontains(D)
p1548
I00
sVcontains(J)
p1549
I00
sg44
tp1550
a((dp1551
Vcontains(u)
p1552
I00
sVcontains(O)
p1553
I00
sVcontains(M)
p1554
I00
sVcontains(S)
p1555
I01
sVcontains(Q)
p1556
I00
sVcontains(d)
p1557
I00
sVcontains(W)
p1558
I01
sVcontains(C)
p1559
I00
sVcontains(A)
p1560
I00
sVcontains(o)
p1561
I00
sVcontains(T)
p1562
I00
sVcontains(Z)
p1563
I00
sVcontains(G)
p1564
I00
sVcontains(E)
p1565
I00
sVcontains(s)
p1566
I00
sVcontains(K)
p1567
I00
sVcontains(I)
p1568
I00
sVcontains(c)
p1569
I00
sVcontains(H)
p1570
I00
sVcontains(N)
p1571
I00
sVcontains(g)
p1572
I00
sVcontains(L)
p1573
I00
sVcontains(e)
p1574
I00
sVcontains(R)
p1575
I00
sVcontains(P)
p1576
I00
sVcontains(V)
p1577
I00
sVcontains(U)
p1578
I00
sVcontains(B)
p1579
I01
sVcontains(h)
p1580
I00
sVcontains(Y)
p1581
I00
sVcontains(F)
p1582
I00
sVcontains(D)
p1583
I00
sVcontains(J)
p1584
I00
sg44
tp1585
a((dp1586
Vcontains(u)
p1587
I00
sVcontains(O)
p1588
I00
sVcontains(M)
p1589
I01
sVcontains(S)
p1590
I01
sVcontains(Q)
p1591
I00
sVcontains(d)
p1592
I00
sVcontains(W)
p1593
I00
sVcontains(C)
p1594
I00
sVcontains(A)
p1595
I00
sVcontains(o)
p1596
I00
sVcontains(T)
p1597
I00
sVcontains(Z)
p1598
I00
sVcontains(G)
p1599
I00
sVcontains(E)
p1600
I00
sVcontains(s)
p1601
I00
sVcontains(K)
p1602
I00
sVcontains(I)
p1603
I00
sVcontains(c)
p1604
I00
sVcontains(H)
p1605
I00
sVcontains(N)
p1606
I00
sVcontains(g)
p1607
I00
sVcontains(L)
p1608
I00
sVcontains(e)
p1609
I00
sVcontains(R)
p1610
I00
sVcontains(P)
p1611
I00
sVcontains(V)
p1612
I01
sVcontains(U)
p1613
I00
sVcontains(B)
p1614
I01
sVcontains(h)
p1615
I00
sVcontains(Y)
p1616
I00
sVcontains(F)
p1617
I00
sVcontains(D)
p1618
I00
sVcontains(J)
p1619
I00
sg44
tp1620
a((dp1621
Vcontains(u)
p1622
I00
sVcontains(O)
p1623
I00
sVcontains(M)
p1624
I00
sVcontains(S)
p1625
I00
sVcontains(Q)
p1626
I00
sVcontains(d)
p1627
I00
sVcontains(W)
p1628
I00
sVcontains(C)
p1629
I00
sVcontains(A)
p1630
I00
sVcontains(o)
p1631
I00
sVcontains(T)
p1632
I00
sVcontains(Z)
p1633
I00
sVcontains(G)
p1634
I00
sVcontains(E)
p1635
I00
sVcontains(s)
p1636
I01
sVcontains(K)
p1637
I00
sVcontains(I)
p1638
I00
sVcontains(c)
p1639
I00
sVcontains(H)
p1640
I00
sVcontains(N)
p1641
I00
sVcontains(g)
p1642
I00
sVcontains(L)
p1643
I00
sVcontains(e)
p1644
I00
sVcontains(R)
p1645
I00
sVcontains(P)
p1646
I00
sVcontains(V)
p1647
I00
sVcontains(U)
p1648
I00
sVcontains(B)
p1649
I01
sVcontains(h)
p1650
I00
sVcontains(Y)
p1651
I00
sVcontains(F)
p1652
I00
sVcontains(D)
p1653
I00
sVcontains(J)
p1654
I00
sg44
tp1655
a((dp1656
Vcontains(u)
p1657
I00
sVcontains(O)
p1658
I00
sVcontains(M)
p1659
I00
sVcontains(S)
p1660
I01
sVcontains(Q)
p1661
I00
sVcontains(d)
p1662
I00
sVcontains(W)
p1663
I00
sVcontains(C)
p1664
I01
sVcontains(A)
p1665
I00
sVcontains(o)
p1666
I00
sVcontains(T)
p1667
I00
sVcontains(Z)
p1668
I00
sVcontains(G)
p1669
I00
sVcontains(E)
p1670
I00
sVcontains(s)
p1671
I00
sVcontains(K)
p1672
I00
sVcontains(I)
p1673
I01
sVcontains(c)
p1674
I00
sVcontains(H)
p1675
I00
sVcontains(N)
p1676
I00
sVcontains(g)
p1677
I00
sVcontains(L)
p1678
I00
sVcontains(e)
p1679
I00
sVcontains(R)
p1680
I00
sVcontains(P)
p1681
I01
sVcontains(V)
p1682
I00
sVcontains(U)
p1683
I00
sVcontains(B)
p1684
I00
sVcontains(h)
p1685
I00
sVcontains(Y)
p1686
I00
sVcontains(F)
p1687
I00
sVcontains(D)
p1688
I00
sVcontains(J)
p1689
I00
sg44
tp1690
a((dp1691
Vcontains(u)
p1692
I00
sVcontains(O)
p1693
I00
sVcontains(M)
p1694
I00
sVcontains(S)
p1695
I00
sVcontains(Q)
p1696
I00
sVcontains(d)
p1697
I00
sVcontains(W)
p1698
I00
sVcontains(C)
p1699
I01
sVcontains(A)
p1700
I01
sVcontains(o)
p1701
I00
sVcontains(T)
p1702
I00
sVcontains(Z)
p1703
I00
sVcontains(G)
p1704
I00
sVcontains(E)
p1705
I00
sVcontains(s)
p1706
I00
sVcontains(K)
p1707
I00
sVcontains(I)
p1708
I00
sVcontains(c)
p1709
I00
sVcontains(H)
p1710
I00
sVcontains(N)
p1711
I01
sVcontains(g)
p1712
I00
sVcontains(L)
p1713
I00
sVcontains(e)
p1714
I00
sVcontains(R)
p1715
I00
sVcontains(P)
p1716
I01
sVcontains(V)
p1717
I00
sVcontains(U)
p1718
I00
sVcontains(B)
p1719
I00
sVcontains(h)
p1720
I00
sVcontains(Y)
p1721
I00
sVcontains(F)
p1722
I00
sVcontains(D)
p1723
I00
sVcontains(J)
p1724
I00
sg44
tp1725
a((dp1726
Vcontains(u)
p1727
I00
sVcontains(O)
p1728
I00
sVcontains(M)
p1729
I00
sVcontains(S)
p1730
I00
sVcontains(Q)
p1731
I00
sVcontains(d)
p1732
I00
sVcontains(W)
p1733
I00
sVcontains(C)
p1734
I01
sVcontains(A)
p1735
I01
sVcontains(o)
p1736
I00
sVcontains(T)
p1737
I00
sVcontains(Z)
p1738
I00
sVcontains(G)
p1739
I00
sVcontains(E)
p1740
I00
sVcontains(s)
p1741
I00
sVcontains(K)
p1742
I00
sVcontains(I)
p1743
I00
sVcontains(c)
p1744
I00
sVcontains(H)
p1745
I00
sVcontains(N)
p1746
I00
sVcontains(g)
p1747
I00
sVcontains(L)
p1748
I00
sVcontains(e)
p1749
I00
sVcontains(R)
p1750
I00
sVcontains(P)
p1751
I01
sVcontains(V)
p1752
I00
sVcontains(U)
p1753
I00
sVcontains(B)
p1754
I00
sVcontains(h)
p1755
I00
sVcontains(Y)
p1756
I00
sVcontains(F)
p1757
I00
sVcontains(D)
p1758
I00
sVcontains(J)
p1759
I00
sg44
tp1760
a((dp1761
Vcontains(u)
p1762
I00
sVcontains(O)
p1763
I00
sVcontains(M)
p1764
I00
sVcontains(S)
p1765
I00
sVcontains(Q)
p1766
I00
sVcontains(d)
p1767
I00
sVcontains(W)
p1768
I00
sVcontains(C)
p1769
I01
sVcontains(A)
p1770
I01
sVcontains(o)
p1771
I00
sVcontains(T)
p1772
I00
sVcontains(Z)
p1773
I00
sVcontains(G)
p1774
I00
sVcontains(E)
p1775
I00
sVcontains(s)
p1776
I00
sVcontains(K)
p1777
I00
sVcontains(I)
p1778
I00
sVcontains(c)
p1779
I00
sVcontains(H)
p1780
I00
sVcontains(N)
p1781
I01
sVcontains(g)
p1782
I00
sVcontains(L)
p1783
I00
sVcontains(e)
p1784
I00
sVcontains(R)
p1785
I01
sVcontains(P)
p1786
I00
sVcontains(V)
p1787
I00
sVcontains(U)
p1788
I00
sVcontains(B)
p1789
I00
sVcontains(h)
p1790
I00
sVcontains(Y)
p1791
I00
sVcontains(F)
p1792
I00
sVcontains(D)
p1793
I00
sVcontains(J)
p1794
I00
sg44
tp1795
a((dp1796
Vcontains(u)
p1797
I00
sVcontains(O)
p1798
I00
sVcontains(M)
p1799
I00
sVcontains(S)
p1800
I00
sVcontains(Q)
p1801
I00
sVcontains(d)
p1802
I00
sVcontains(W)
p1803
I00
sVcontains(C)
p1804
I01
sVcontains(A)
p1805
I01
sVcontains(o)
p1806
I00
sVcontains(T)
p1807
I01
sVcontains(Z)
p1808
I00
sVcontains(G)
p1809
I00
sVcontains(E)
p1810
I00
sVcontains(s)
p1811
I00
sVcontains(K)
p1812
I00
sVcontains(I)
p1813
I01
sVcontains(c)
p1814
I00
sVcontains(H)
p1815
I00
sVcontains(N)
p1816
I01
sVcontains(g)
p1817
I00
sVcontains(L)
p1818
I00
sVcontains(e)
p1819
I00
sVcontains(R)
p1820
I00
sVcontains(P)
p1821
I00
sVcontains(V)
p1822
I00
sVcontains(U)
p1823
I00
sVcontains(B)
p1824
I00
sVcontains(h)
p1825
I00
sVcontains(Y)
p1826
I00
sVcontains(F)
p1827
I00
sVcontains(D)
p1828
I00
sVcontains(J)
p1829
I00
sg44
tp1830
a((dp1831
Vcontains(u)
p1832
I00
sVcontains(O)
p1833
I00
sVcontains(M)
p1834
I00
sVcontains(S)
p1835
I00
sVcontains(Q)
p1836
I00
sVcontains(d)
p1837
I00
sVcontains(W)
p1838
I00
sVcontains(C)
p1839
I01
sVcontains(A)
p1840
I01
sVcontains(o)
p1841
I00
sVcontains(T)
p1842
I01
sVcontains(Z)
p1843
I00
sVcontains(G)
p1844
I00
sVcontains(E)
p1845
I00
sVcontains(s)
p1846
I00
sVcontains(K)
p1847
I00
sVcontains(I)
p1848
I00
sVcontains(c)
p1849
I00
sVcontains(H)
p1850
I00
sVcontains(N)
p1851
I01
sVcontains(g)
p1852
I00
sVcontains(L)
p1853
I00
sVcontains(e)
p1854
I00
sVcontains(R)
p1855
I00
sVcontains(P)
p1856
I01
sVcontains(V)
p1857
I00
sVcontains(U)
p1858
I00
sVcontains(B)
p1859
I00
sVcontains(h)
p1860
I00
sVcontains(Y)
p1861
I00
sVcontains(F)
p1862
I00
sVcontains(D)
p1863
I00
sVcontains(J)
p1864
I00
sg44
tp1865
a((dp1866
Vcontains(u)
p1867
I00
sVcontains(O)
p1868
I00
sVcontains(M)
p1869
I00
sVcontains(S)
p1870
I00
sVcontains(Q)
p1871
I00
sVcontains(d)
p1872
I00
sVcontains(W)
p1873
I00
sVcontains(C)
p1874
I01
sVcontains(A)
p1875
I01
sVcontains(o)
p1876
I00
sVcontains(T)
p1877
I00
sVcontains(Z)
p1878
I00
sVcontains(G)
p1879
I00
sVcontains(E)
p1880
I00
sVcontains(s)
p1881
I00
sVcontains(K)
p1882
I00
sVcontains(I)
p1883
I00
sVcontains(c)
p1884
I00
sVcontains(H)
p1885
I00
sVcontains(N)
p1886
I00
sVcontains(g)
p1887
I00
sVcontains(L)
p1888
I00
sVcontains(e)
p1889
I00
sVcontains(R)
p1890
I00
sVcontains(P)
p1891
I00
sVcontains(V)
p1892
I00
sVcontains(U)
p1893
I00
sVcontains(B)
p1894
I00
sVcontains(h)
p1895
I00
sVcontains(Y)
p1896
I00
sVcontains(F)
p1897
I00
sVcontains(D)
p1898
I00
sVcontains(J)
p1899
I00
sg44
tp1900
a((dp1901
Vcontains(u)
p1902
I00
sVcontains(O)
p1903
I00
sVcontains(M)
p1904
I00
sVcontains(S)
p1905
I01
sVcontains(Q)
p1906
I00
sVcontains(d)
p1907
I00
sVcontains(W)
p1908
I00
sVcontains(C)
p1909
I01
sVcontains(A)
p1910
I00
sVcontains(o)
p1911
I00
sVcontains(T)
p1912
I00
sVcontains(Z)
p1913
I00
sVcontains(G)
p1914
I00
sVcontains(E)
p1915
I00
sVcontains(s)
p1916
I00
sVcontains(K)
p1917
I00
sVcontains(I)
p1918
I00
sVcontains(c)
p1919
I00
sVcontains(H)
p1920
I00
sVcontains(N)
p1921
I00
sVcontains(g)
p1922
I00
sVcontains(L)
p1923
I01
sVcontains(e)
p1924
I00
sVcontains(R)
p1925
I00
sVcontains(P)
p1926
I01
sVcontains(V)
p1927
I00
sVcontains(U)
p1928
I00
sVcontains(B)
p1929
I00
sVcontains(h)
p1930
I00
sVcontains(Y)
p1931
I00
sVcontains(F)
p1932
I00
sVcontains(D)
p1933
I00
sVcontains(J)
p1934
I00
sg44
tp1935
a((dp1936
Vcontains(u)
p1937
I00
sVcontains(O)
p1938
I00
sVcontains(M)
p1939
I00
sVcontains(S)
p1940
I00
sVcontains(Q)
p1941
I00
sVcontains(d)
p1942
I00
sVcontains(W)
p1943
I00
sVcontains(C)
p1944
I01
sVcontains(A)
p1945
I00
sVcontains(o)
p1946
I00
sVcontains(T)
p1947
I00
sVcontains(Z)
p1948
I00
sVcontains(G)
p1949
I00
sVcontains(E)
p1950
I00
sVcontains(s)
p1951
I00
sVcontains(K)
p1952
I00
sVcontains(I)
p1953
I00
sVcontains(c)
p1954
I00
sVcontains(H)
p1955
I00
sVcontains(N)
p1956
I01
sVcontains(g)
p1957
I00
sVcontains(L)
p1958
I00
sVcontains(e)
p1959
I00
sVcontains(R)
p1960
I00
sVcontains(P)
p1961
I00
sVcontains(V)
p1962
I00
sVcontains(U)
p1963
I00
sVcontains(B)
p1964
I00
sVcontains(h)
p1965
I00
sVcontains(Y)
p1966
I00
sVcontains(F)
p1967
I00
sVcontains(D)
p1968
I00
sVcontains(J)
p1969
I00
sg44
tp1970
a((dp1971
Vcontains(u)
p1972
I00
sVcontains(O)
p1973
I00
sVcontains(M)
p1974
I00
sVcontains(S)
p1975
I00
sVcontains(Q)
p1976
I00
sVcontains(d)
p1977
I00
sVcontains(W)
p1978
I00
sVcontains(C)
p1979
I01
sVcontains(A)
p1980
I00
sVcontains(o)
p1981
I00
sVcontains(T)
p1982
I00
sVcontains(Z)
p1983
I00
sVcontains(G)
p1984
I00
sVcontains(E)
p1985
I01
sVcontains(s)
p1986
I00
sVcontains(K)
p1987
I00
sVcontains(I)
p1988
I00
sVcontains(c)
p1989
I00
sVcontains(H)
p1990
I00
sVcontains(N)
p1991
I00
sVcontains(g)
p1992
I00
sVcontains(L)
p1993
I00
sVcontains(e)
p1994
I00
sVcontains(R)
p1995
I00
sVcontains(P)
p1996
I00
sVcontains(V)
p1997
I00
sVcontains(U)
p1998
I00
sVcontains(B)
p1999
I00
sVcontains(h)
p2000
I00
sVcontains(Y)
p2001
I00
sVcontains(F)
p2002
I00
sVcontains(D)
p2003
I00
sVcontains(J)
p2004
I00
sg44
tp2005
a((dp2006
Vcontains(u)
p2007
I00
sVcontains(O)
p2008
I00
sVcontains(M)
p2009
I01
sVcontains(S)
p2010
I00
sVcontains(Q)
p2011
I00
sVcontains(d)
p2012
I00
sVcontains(W)
p2013
I00
sVcontains(C)
p2014
I01
sVcontains(A)
p2015
I00
sVcontains(o)
p2016
I00
sVcontains(T)
p2017
I00
sVcontains(Z)
p2018
I00
sVcontains(G)
p2019
I00
sVcontains(E)
p2020
I00
sVcontains(s)
p2021
I00
sVcontains(K)
p2022
I00
sVcontains(I)
p2023
I00
sVcontains(c)
p2024
I00
sVcontains(H)
p2025
I00
sVcontains(N)
p2026
I00
sVcontains(g)
p2027
I00
sVcontains(L)
p2028
I00
sVcontains(e)
p2029
I00
sVcontains(R)
p2030
I00
sVcontains(P)
p2031
I00
sVcontains(V)
p2032
I00
sVcontains(U)
p2033
I00
sVcontains(B)
p2034
I00
sVcontains(h)
p2035
I00
sVcontains(Y)
p2036
I00
sVcontains(F)
p2037
I00
sVcontains(D)
p2038
I00
sVcontains(J)
p2039
I00
sg44
tp2040
a((dp2041
Vcontains(u)
p2042
I00
sVcontains(O)
p2043
I00
sVcontains(M)
p2044
I00
sVcontains(S)
p2045
I01
sVcontains(Q)
p2046
I00
sVcontains(d)
p2047
I00
sVcontains(W)
p2048
I00
sVcontains(C)
p2049
I01
sVcontains(A)
p2050
I00
sVcontains(o)
p2051
I00
sVcontains(T)
p2052
I00
sVcontains(Z)
p2053
I00
sVcontains(G)
p2054
I00
sVcontains(E)
p2055
I00
sVcontains(s)
p2056
I00
sVcontains(K)
p2057
I00
sVcontains(I)
p2058
I00
sVcontains(c)
p2059
I00
sVcontains(H)
p2060
I00
sVcontains(N)
p2061
I01
sVcontains(g)
p2062
I00
sVcontains(L)
p2063
I00
sVcontains(e)
p2064
I00
sVcontains(R)
p2065
I00
sVcontains(P)
p2066
I00
sVcontains(V)
p2067
I00
sVcontains(U)
p2068
I00
sVcontains(B)
p2069
I00
sVcontains(h)
p2070
I00
sVcontains(Y)
p2071
I00
sVcontains(F)
p2072
I00
sVcontains(D)
p2073
I00
sVcontains(J)
p2074
I00
sg44
tp2075
a((dp2076
Vcontains(u)
p2077
I00
sVcontains(O)
p2078
I00
sVcontains(M)
p2079
I00
sVcontains(S)
p2080
I00
sVcontains(Q)
p2081
I00
sVcontains(d)
p2082
I00
sVcontains(W)
p2083
I00
sVcontains(C)
p2084
I01
sVcontains(A)
p2085
I00
sVcontains(o)
p2086
I00
sVcontains(T)
p2087
I00
sVcontains(Z)
p2088
I00
sVcontains(G)
p2089
I00
sVcontains(E)
p2090
I00
sVcontains(s)
p2091
I00
sVcontains(K)
p2092
I00
sVcontains(I)
p2093
I00
sVcontains(c)
p2094
I00
sVcontains(H)
p2095
I00
sVcontains(N)
p2096
I00
sVcontains(g)
p2097
I00
sVcontains(L)
p2098
I00
sVcontains(e)
p2099
I00
sVcontains(R)
p2100
I00
sVcontains(P)
p2101
I01
sVcontains(V)
p2102
I00
sVcontains(U)
p2103
I00
sVcontains(B)
p2104
I00
sVcontains(h)
p2105
I00
sVcontains(Y)
p2106
I00
sVcontains(F)
p2107
I00
sVcontains(D)
p2108
I00
sVcontains(J)
p2109
I00
sg44
tp2110
a((dp2111
Vcontains(u)
p2112
I00
sVcontains(O)
p2113
I00
sVcontains(M)
p2114
I00
sVcontains(S)
p2115
I00
sVcontains(Q)
p2116
I00
sVcontains(d)
p2117
I00
sVcontains(W)
p2118
I00
sVcontains(C)
p2119
I01
sVcontains(A)
p2120
I00
sVcontains(o)
p2121
I00
sVcontains(T)
p2122
I00
sVcontains(Z)
p2123
I00
sVcontains(G)
p2124
I00
sVcontains(E)
p2125
I00
sVcontains(s)
p2126
I00
sVcontains(K)
p2127
I00
sVcontains(I)
p2128
I00
sVcontains(c)
p2129
I00
sVcontains(H)
p2130
I00
sVcontains(N)
p2131
I01
sVcontains(g)
p2132
I00
sVcontains(L)
p2133
I00
sVcontains(e)
p2134
I00
sVcontains(R)
p2135
I01
sVcontains(P)
p2136
I00
sVcontains(V)
p2137
I00
sVcontains(U)
p2138
I00
sVcontains(B)
p2139
I00
sVcontains(h)
p2140
I00
sVcontains(Y)
p2141
I00
sVcontains(F)
p2142
I00
sVcontains(D)
p2143
I00
sVcontains(J)
p2144
I00
sg44
tp2145
a((dp2146
Vcontains(u)
p2147
I00
sVcontains(O)
p2148
I00
sVcontains(M)
p2149
I00
sVcontains(S)
p2150
I00
sVcontains(Q)
p2151
I00
sVcontains(d)
p2152
I00
sVcontains(W)
p2153
I00
sVcontains(C)
p2154
I01
sVcontains(A)
p2155
I00
sVcontains(o)
p2156
I00
sVcontains(T)
p2157
I01
sVcontains(Z)
p2158
I00
sVcontains(G)
p2159
I00
sVcontains(E)
p2160
I00
sVcontains(s)
p2161
I00
sVcontains(K)
p2162
I00
sVcontains(I)
p2163
I00
sVcontains(c)
p2164
I00
sVcontains(H)
p2165
I00
sVcontains(N)
p2166
I00
sVcontains(g)
p2167
I00
sVcontains(L)
p2168
I00
sVcontains(e)
p2169
I00
sVcontains(R)
p2170
I00
sVcontains(P)
p2171
I00
sVcontains(V)
p2172
I00
sVcontains(U)
p2173
I00
sVcontains(B)
p2174
I00
sVcontains(h)
p2175
I00
sVcontains(Y)
p2176
I00
sVcontains(F)
p2177
I00
sVcontains(D)
p2178
I00
sVcontains(J)
p2179
I00
sg44
tp2180
a((dp2181
Vcontains(u)
p2182
I00
sVcontains(O)
p2183
I00
sVcontains(M)
p2184
I00
sVcontains(S)
p2185
I00
sVcontains(Q)
p2186
I00
sVcontains(d)
p2187
I00
sVcontains(W)
p2188
I00
sVcontains(C)
p2189
I01
sVcontains(A)
p2190
I00
sVcontains(o)
p2191
I00
sVcontains(T)
p2192
I01
sVcontains(Z)
p2193
I00
sVcontains(G)
p2194
I00
sVcontains(E)
p2195
I00
sVcontains(s)
p2196
I00
sVcontains(K)
p2197
I00
sVcontains(I)
p2198
I00
sVcontains(c)
p2199
I00
sVcontains(H)
p2200
I00
sVcontains(N)
p2201
I01
sVcontains(g)
p2202
I00
sVcontains(L)
p2203
I00
sVcontains(e)
p2204
I00
sVcontains(R)
p2205
I00
sVcontains(P)
p2206
I00
sVcontains(V)
p2207
I00
sVcontains(U)
p2208
I00
sVcontains(B)
p2209
I00
sVcontains(h)
p2210
I00
sVcontains(Y)
p2211
I00
sVcontains(F)
p2212
I00
sVcontains(D)
p2213
I00
sVcontains(J)
p2214
I00
sg44
tp2215
a((dp2216
Vcontains(u)
p2217
I00
sVcontains(O)
p2218
I00
sVcontains(M)
p2219
I00
sVcontains(S)
p2220
I00
sVcontains(Q)
p2221
I00
sVcontains(d)
p2222
I00
sVcontains(W)
p2223
I00
sVcontains(C)
p2224
I01
sVcontains(A)
p2225
I00
sVcontains(o)
p2226
I00
sVcontains(T)
p2227
I01
sVcontains(Z)
p2228
I00
sVcontains(G)
p2229
I00
sVcontains(E)
p2230
I00
sVcontains(s)
p2231
I00
sVcontains(K)
p2232
I00
sVcontains(I)
p2233
I00
sVcontains(c)
p2234
I00
sVcontains(H)
p2235
I00
sVcontains(N)
p2236
I01
sVcontains(g)
p2237
I00
sVcontains(L)
p2238
I00
sVcontains(e)
p2239
I00
sVcontains(R)
p2240
I01
sVcontains(P)
p2241
I00
sVcontains(V)
p2242
I00
sVcontains(U)
p2243
I00
sVcontains(B)
p2244
I00
sVcontains(h)
p2245
I00
sVcontains(Y)
p2246
I00
sVcontains(F)
p2247
I00
sVcontains(D)
p2248
I00
sVcontains(J)
p2249
I00
sg44
tp2250
a((dp2251
Vcontains(u)
p2252
I00
sVcontains(O)
p2253
I00
sVcontains(M)
p2254
I00
sVcontains(S)
p2255
I00
sVcontains(Q)
p2256
I00
sVcontains(d)
p2257
I00
sVcontains(W)
p2258
I00
sVcontains(C)
p2259
I01
sVcontains(A)
p2260
I00
sVcontains(o)
p2261
I00
sVcontains(T)
p2262
I00
sVcontains(Z)
p2263
I00
sVcontains(G)
p2264
I00
sVcontains(E)
p2265
I00
sVcontains(s)
p2266
I00
sVcontains(K)
p2267
I00
sVcontains(I)
p2268
I00
sVcontains(c)
p2269
I00
sVcontains(H)
p2270
I00
sVcontains(N)
p2271
I00
sVcontains(g)
p2272
I00
sVcontains(L)
p2273
I00
sVcontains(e)
p2274
I00
sVcontains(R)
p2275
I00
sVcontains(P)
p2276
I00
sVcontains(V)
p2277
I00
sVcontains(U)
p2278
I00
sVcontains(B)
p2279
I00
sVcontains(h)
p2280
I00
sVcontains(Y)
p2281
I00
sVcontains(F)
p2282
I00
sVcontains(D)
p2283
I01
sVcontains(J)
p2284
I00
sg44
tp2285
a((dp2286
Vcontains(u)
p2287
I00
sVcontains(O)
p2288
I00
sVcontains(M)
p2289
I00
sVcontains(S)
p2290
I00
sVcontains(Q)
p2291
I00
sVcontains(d)
p2292
I00
sVcontains(W)
p2293
I00
sVcontains(C)
p2294
I01
sVcontains(A)
p2295
I01
sVcontains(o)
p2296
I00
sVcontains(T)
p2297
I00
sVcontains(Z)
p2298
I00
sVcontains(G)
p2299
I00
sVcontains(E)
p2300
I00
sVcontains(s)
p2301
I00
sVcontains(K)
p2302
I00
sVcontains(I)
p2303
I00
sVcontains(c)
p2304
I00
sVcontains(H)
p2305
I00
sVcontains(N)
p2306
I00
sVcontains(g)
p2307
I00
sVcontains(L)
p2308
I00
sVcontains(e)
p2309
I00
sVcontains(R)
p2310
I00
sVcontains(P)
p2311
I00
sVcontains(V)
p2312
I00
sVcontains(U)
p2313
I00
sVcontains(B)
p2314
I00
sVcontains(h)
p2315
I00
sVcontains(Y)
p2316
I00
sVcontains(F)
p2317
I00
sVcontains(D)
p2318
I01
sVcontains(J)
p2319
I00
sg44
tp2320
a((dp2321
Vcontains(u)
p2322
I00
sVcontains(O)
p2323
I00
sVcontains(M)
p2324
I00
sVcontains(S)
p2325
I00
sVcontains(Q)
p2326
I00
sVcontains(d)
p2327
I00
sVcontains(W)
p2328
I00
sVcontains(C)
p2329
I01
sVcontains(A)
p2330
I00
sVcontains(o)
p2331
I00
sVcontains(T)
p2332
I00
sVcontains(Z)
p2333
I00
sVcontains(G)
p2334
I00
sVcontains(E)
p2335
I00
sVcontains(s)
p2336
I00
sVcontains(K)
p2337
I00
sVcontains(I)
p2338
I00
sVcontains(c)
p2339
I00
sVcontains(H)
p2340
I00
sVcontains(N)
p2341
I01
sVcontains(g)
p2342
I00
sVcontains(L)
p2343
I00
sVcontains(e)
p2344
I00
sVcontains(R)
p2345
I00
sVcontains(P)
p2346
I00
sVcontains(V)
p2347
I00
sVcontains(U)
p2348
I00
sVcontains(B)
p2349
I00
sVcontains(h)
p2350
I00
sVcontains(Y)
p2351
I00
sVcontains(F)
p2352
I00
sVcontains(D)
p2353
I01
sVcontains(J)
p2354
I00
sg44
tp2355
a((dp2356
Vcontains(u)
p2357
I00
sVcontains(O)
p2358
I00
sVcontains(M)
p2359
I00
sVcontains(S)
p2360
I00
sVcontains(Q)
p2361
I00
sVcontains(d)
p2362
I00
sVcontains(W)
p2363
I00
sVcontains(C)
p2364
I01
sVcontains(A)
p2365
I00
sVcontains(o)
p2366
I00
sVcontains(T)
p2367
I00
sVcontains(Z)
p2368
I00
sVcontains(G)
p2369
I00
sVcontains(E)
p2370
I01
sVcontains(s)
p2371
I00
sVcontains(K)
p2372
I00
sVcontains(I)
p2373
I00
sVcontains(c)
p2374
I00
sVcontains(H)
p2375
I00
sVcontains(N)
p2376
I00
sVcontains(g)
p2377
I00
sVcontains(L)
p2378
I00
sVcontains(e)
p2379
I00
sVcontains(R)
p2380
I00
sVcontains(P)
p2381
I00
sVcontains(V)
p2382
I00
sVcontains(U)
p2383
I00
sVcontains(B)
p2384
I00
sVcontains(h)
p2385
I00
sVcontains(Y)
p2386
I00
sVcontains(F)
p2387
I00
sVcontains(D)
p2388
I01
sVcontains(J)
p2389
I00
sg44
tp2390
a((dp2391
Vcontains(u)
p2392
I00
sVcontains(O)
p2393
I00
sVcontains(M)
p2394
I01
sVcontains(S)
p2395
I01
sVcontains(Q)
p2396
I00
sVcontains(d)
p2397
I00
sVcontains(W)
p2398
I00
sVcontains(C)
p2399
I01
sVcontains(A)
p2400
I00
sVcontains(o)
p2401
I00
sVcontains(T)
p2402
I00
sVcontains(Z)
p2403
I00
sVcontains(G)
p2404
I00
sVcontains(E)
p2405
I00
sVcontains(s)
p2406
I00
sVcontains(K)
p2407
I00
sVcontains(I)
p2408
I00
sVcontains(c)
p2409
I00
sVcontains(H)
p2410
I00
sVcontains(N)
p2411
I00
sVcontains(g)
p2412
I00
sVcontains(L)
p2413
I00
sVcontains(e)
p2414
I00
sVcontains(R)
p2415
I00
sVcontains(P)
p2416
I00
sVcontains(V)
p2417
I00
sVcontains(U)
p2418
I00
sVcontains(B)
p2419
I00
sVcontains(h)
p2420
I00
sVcontains(Y)
p2421
I00
sVcontains(F)
p2422
I00
sVcontains(D)
p2423
I01
sVcontains(J)
p2424
I00
sg44
tp2425
a((dp2426
Vcontains(u)
p2427
I00
sVcontains(O)
p2428
I00
sVcontains(M)
p2429
I00
sVcontains(S)
p2430
I00
sVcontains(Q)
p2431
I00
sVcontains(d)
p2432
I00
sVcontains(W)
p2433
I00
sVcontains(C)
p2434
I01
sVcontains(A)
p2435
I00
sVcontains(o)
p2436
I00
sVcontains(T)
p2437
I00
sVcontains(Z)
p2438
I00
sVcontains(G)
p2439
I00
sVcontains(E)
p2440
I00
sVcontains(s)
p2441
I00
sVcontains(K)
p2442
I00
sVcontains(I)
p2443
I00
sVcontains(c)
p2444
I00
sVcontains(H)
p2445
I00
sVcontains(N)
p2446
I01
sVcontains(g)
p2447
I00
sVcontains(L)
p2448
I00
sVcontains(e)
p2449
I00
sVcontains(R)
p2450
I00
sVcontains(P)
p2451
I00
sVcontains(V)
p2452
I00
sVcontains(U)
p2453
I00
sVcontains(B)
p2454
I00
sVcontains(h)
p2455
I00
sVcontains(Y)
p2456
I00
sVcontains(F)
p2457
I00
sVcontains(D)
p2458
I01
sVcontains(J)
p2459
I00
sg44
tp2460
a((dp2461
Vcontains(u)
p2462
I00
sVcontains(O)
p2463
I01
sVcontains(M)
p2464
I00
sVcontains(S)
p2465
I00
sVcontains(Q)
p2466
I00
sVcontains(d)
p2467
I00
sVcontains(W)
p2468
I00
sVcontains(C)
p2469
I01
sVcontains(A)
p2470
I01
sVcontains(o)
p2471
I00
sVcontains(T)
p2472
I01
sVcontains(Z)
p2473
I00
sVcontains(G)
p2474
I00
sVcontains(E)
p2475
I00
sVcontains(s)
p2476
I00
sVcontains(K)
p2477
I00
sVcontains(I)
p2478
I00
sVcontains(c)
p2479
I00
sVcontains(H)
p2480
I00
sVcontains(N)
p2481
I01
sVcontains(g)
p2482
I00
sVcontains(L)
p2483
I01
sVcontains(e)
p2484
I00
sVcontains(R)
p2485
I00
sVcontains(P)
p2486
I00
sVcontains(V)
p2487
I00
sVcontains(U)
p2488
I00
sVcontains(B)
p2489
I00
sVcontains(h)
p2490
I00
sVcontains(Y)
p2491
I00
sVcontains(F)
p2492
I00
sVcontains(D)
p2493
I01
sVcontains(J)
p2494
I00
sg44
tp2495
a((dp2496
Vcontains(u)
p2497
I00
sVcontains(O)
p2498
I00
sVcontains(M)
p2499
I00
sVcontains(S)
p2500
I00
sVcontains(Q)
p2501
I00
sVcontains(d)
p2502
I00
sVcontains(W)
p2503
I00
sVcontains(C)
p2504
I01
sVcontains(A)
p2505
I00
sVcontains(o)
p2506
I00
sVcontains(T)
p2507
I01
sVcontains(Z)
p2508
I00
sVcontains(G)
p2509
I00
sVcontains(E)
p2510
I00
sVcontains(s)
p2511
I00
sVcontains(K)
p2512
I00
sVcontains(I)
p2513
I00
sVcontains(c)
p2514
I00
sVcontains(H)
p2515
I00
sVcontains(N)
p2516
I00
sVcontains(g)
p2517
I00
sVcontains(L)
p2518
I00
sVcontains(e)
p2519
I00
sVcontains(R)
p2520
I00
sVcontains(P)
p2521
I00
sVcontains(V)
p2522
I00
sVcontains(U)
p2523
I00
sVcontains(B)
p2524
I00
sVcontains(h)
p2525
I00
sVcontains(Y)
p2526
I00
sVcontains(F)
p2527
I00
sVcontains(D)
p2528
I01
sVcontains(J)
p2529
I00
sg44
tp2530
a((dp2531
Vcontains(u)
p2532
I00
sVcontains(O)
p2533
I00
sVcontains(M)
p2534
I00
sVcontains(S)
p2535
I00
sVcontains(Q)
p2536
I00
sVcontains(d)
p2537
I00
sVcontains(W)
p2538
I00
sVcontains(C)
p2539
I01
sVcontains(A)
p2540
I00
sVcontains(o)
p2541
I00
sVcontains(T)
p2542
I00
sVcontains(Z)
p2543
I00
sVcontains(G)
p2544
I00
sVcontains(E)
p2545
I01
sVcontains(s)
p2546
I00
sVcontains(K)
p2547
I00
sVcontains(I)
p2548
I00
sVcontains(c)
p2549
I00
sVcontains(H)
p2550
I00
sVcontains(N)
p2551
I01
sVcontains(g)
p2552
I00
sVcontains(L)
p2553
I00
sVcontains(e)
p2554
I00
sVcontains(R)
p2555
I00
sVcontains(P)
p2556
I00
sVcontains(V)
p2557
I00
sVcontains(U)
p2558
I00
sVcontains(B)
p2559
I00
sVcontains(h)
p2560
I00
sVcontains(Y)
p2561
I00
sVcontains(F)
p2562
I00
sVcontains(D)
p2563
I00
sVcontains(J)
p2564
I00
sg44
tp2565
a((dp2566
Vcontains(u)
p2567
I00
sVcontains(O)
p2568
I00
sVcontains(M)
p2569
I00
sVcontains(S)
p2570
I00
sVcontains(Q)
p2571
I00
sVcontains(d)
p2572
I00
sVcontains(W)
p2573
I00
sVcontains(C)
p2574
I01
sVcontains(A)
p2575
I00
sVcontains(o)
p2576
I00
sVcontains(T)
p2577
I01
sVcontains(Z)
p2578
I00
sVcontains(G)
p2579
I00
sVcontains(E)
p2580
I01
sVcontains(s)
p2581
I00
sVcontains(K)
p2582
I00
sVcontains(I)
p2583
I00
sVcontains(c)
p2584
I00
sVcontains(H)
p2585
I00
sVcontains(N)
p2586
I01
sVcontains(g)
p2587
I00
sVcontains(L)
p2588
I00
sVcontains(e)
p2589
I00
sVcontains(R)
p2590
I00
sVcontains(P)
p2591
I00
sVcontains(V)
p2592
I00
sVcontains(U)
p2593
I00
sVcontains(B)
p2594
I00
sVcontains(h)
p2595
I00
sVcontains(Y)
p2596
I00
sVcontains(F)
p2597
I00
sVcontains(D)
p2598
I00
sVcontains(J)
p2599
I00
sg44
tp2600
a((dp2601
Vcontains(u)
p2602
I00
sVcontains(O)
p2603
I00
sVcontains(M)
p2604
I00
sVcontains(S)
p2605
I00
sVcontains(Q)
p2606
I00
sVcontains(d)
p2607
I00
sVcontains(W)
p2608
I00
sVcontains(C)
p2609
I01
sVcontains(A)
p2610
I00
sVcontains(o)
p2611
I00
sVcontains(T)
p2612
I00
sVcontains(Z)
p2613
I00
sVcontains(G)
p2614
I00
sVcontains(E)
p2615
I00
sVcontains(s)
p2616
I00
sVcontains(K)
p2617
I00
sVcontains(I)
p2618
I00
sVcontains(c)
p2619
I00
sVcontains(H)
p2620
I00
sVcontains(N)
p2621
I01
sVcontains(g)
p2622
I00
sVcontains(L)
p2623
I00
sVcontains(e)
p2624
I00
sVcontains(R)
p2625
I00
sVcontains(P)
p2626
I00
sVcontains(V)
p2627
I00
sVcontains(U)
p2628
I00
sVcontains(B)
p2629
I00
sVcontains(h)
p2630
I00
sVcontains(Y)
p2631
I00
sVcontains(F)
p2632
I01
sVcontains(D)
p2633
I00
sVcontains(J)
p2634
I00
sg44
tp2635
a((dp2636
Vcontains(u)
p2637
I00
sVcontains(O)
p2638
I00
sVcontains(M)
p2639
I00
sVcontains(S)
p2640
I00
sVcontains(Q)
p2641
I00
sVcontains(d)
p2642
I00
sVcontains(W)
p2643
I00
sVcontains(C)
p2644
I01
sVcontains(A)
p2645
I00
sVcontains(o)
p2646
I00
sVcontains(T)
p2647
I00
sVcontains(Z)
p2648
I00
sVcontains(G)
p2649
I00
sVcontains(E)
p2650
I00
sVcontains(s)
p2651
I00
sVcontains(K)
p2652
I00
sVcontains(I)
p2653
I00
sVcontains(c)
p2654
I00
sVcontains(H)
p2655
I00
sVcontains(N)
p2656
I01
sVcontains(g)
p2657
I00
sVcontains(L)
p2658
I00
sVcontains(e)
p2659
I00
sVcontains(R)
p2660
I00
sVcontains(P)
p2661
I00
sVcontains(V)
p2662
I00
sVcontains(U)
p2663
I00
sVcontains(B)
p2664
I00
sVcontains(h)
p2665
I00
sVcontains(Y)
p2666
I00
sVcontains(F)
p2667
I01
sVcontains(D)
p2668
I00
sVcontains(J)
p2669
I00
sg44
tp2670
a((dp2671
Vcontains(u)
p2672
I00
sVcontains(O)
p2673
I00
sVcontains(M)
p2674
I00
sVcontains(S)
p2675
I00
sVcontains(Q)
p2676
I00
sVcontains(d)
p2677
I00
sVcontains(W)
p2678
I00
sVcontains(C)
p2679
I01
sVcontains(A)
p2680
I00
sVcontains(o)
p2681
I00
sVcontains(T)
p2682
I00
sVcontains(Z)
p2683
I00
sVcontains(G)
p2684
I00
sVcontains(E)
p2685
I00
sVcontains(s)
p2686
I00
sVcontains(K)
p2687
I00
sVcontains(I)
p2688
I00
sVcontains(c)
p2689
I00
sVcontains(H)
p2690
I00
sVcontains(N)
p2691
I01
sVcontains(g)
p2692
I00
sVcontains(L)
p2693
I00
sVcontains(e)
p2694
I00
sVcontains(R)
p2695
I00
sVcontains(P)
p2696
I01
sVcontains(V)
p2697
I00
sVcontains(U)
p2698
I00
sVcontains(B)
p2699
I00
sVcontains(h)
p2700
I00
sVcontains(Y)
p2701
I00
sVcontains(F)
p2702
I01
sVcontains(D)
p2703
I00
sVcontains(J)
p2704
I00
sg44
tp2705
a((dp2706
Vcontains(u)
p2707
I00
sVcontains(O)
p2708
I00
sVcontains(M)
p2709
I00
sVcontains(S)
p2710
I00
sVcontains(Q)
p2711
I00
sVcontains(d)
p2712
I00
sVcontains(W)
p2713
I00
sVcontains(C)
p2714
I01
sVcontains(A)
p2715
I00
sVcontains(o)
p2716
I00
sVcontains(T)
p2717
I00
sVcontains(Z)
p2718
I00
sVcontains(G)
p2719
I00
sVcontains(E)
p2720
I00
sVcontains(s)
p2721
I00
sVcontains(K)
p2722
I00
sVcontains(I)
p2723
I00
sVcontains(c)
p2724
I00
sVcontains(H)
p2725
I00
sVcontains(N)
p2726
I01
sVcontains(g)
p2727
I00
sVcontains(L)
p2728
I00
sVcontains(e)
p2729
I00
sVcontains(R)
p2730
I01
sVcontains(P)
p2731
I00
sVcontains(V)
p2732
I00
sVcontains(U)
p2733
I00
sVcontains(B)
p2734
I00
sVcontains(h)
p2735
I00
sVcontains(Y)
p2736
I00
sVcontains(F)
p2737
I01
sVcontains(D)
p2738
I00
sVcontains(J)
p2739
I00
sg44
tp2740
a((dp2741
Vcontains(u)
p2742
I00
sVcontains(O)
p2743
I00
sVcontains(M)
p2744
I00
sVcontains(S)
p2745
I00
sVcontains(Q)
p2746
I00
sVcontains(d)
p2747
I00
sVcontains(W)
p2748
I00
sVcontains(C)
p2749
I01
sVcontains(A)
p2750
I00
sVcontains(o)
p2751
I00
sVcontains(T)
p2752
I00
sVcontains(Z)
p2753
I00
sVcontains(G)
p2754
I01
sVcontains(E)
p2755
I00
sVcontains(s)
p2756
I00
sVcontains(K)
p2757
I00
sVcontains(I)
p2758
I00
sVcontains(c)
p2759
I00
sVcontains(H)
p2760
I00
sVcontains(N)
p2761
I00
sVcontains(g)
p2762
I00
sVcontains(L)
p2763
I00
sVcontains(e)
p2764
I00
sVcontains(R)
p2765
I00
sVcontains(P)
p2766
I00
sVcontains(V)
p2767
I00
sVcontains(U)
p2768
I00
sVcontains(B)
p2769
I00
sVcontains(h)
p2770
I00
sVcontains(Y)
p2771
I00
sVcontains(F)
p2772
I00
sVcontains(D)
p2773
I00
sVcontains(J)
p2774
I00
sg44
tp2775
a((dp2776
Vcontains(u)
p2777
I00
sVcontains(O)
p2778
I00
sVcontains(M)
p2779
I00
sVcontains(S)
p2780
I00
sVcontains(Q)
p2781
I00
sVcontains(d)
p2782
I00
sVcontains(W)
p2783
I00
sVcontains(C)
p2784
I01
sVcontains(A)
p2785
I00
sVcontains(o)
p2786
I00
sVcontains(T)
p2787
I00
sVcontains(Z)
p2788
I00
sVcontains(G)
p2789
I01
sVcontains(E)
p2790
I00
sVcontains(s)
p2791
I00
sVcontains(K)
p2792
I00
sVcontains(I)
p2793
I00
sVcontains(c)
p2794
I00
sVcontains(H)
p2795
I00
sVcontains(N)
p2796
I01
sVcontains(g)
p2797
I00
sVcontains(L)
p2798
I00
sVcontains(e)
p2799
I00
sVcontains(R)
p2800
I00
sVcontains(P)
p2801
I00
sVcontains(V)
p2802
I00
sVcontains(U)
p2803
I00
sVcontains(B)
p2804
I00
sVcontains(h)
p2805
I00
sVcontains(Y)
p2806
I00
sVcontains(F)
p2807
I00
sVcontains(D)
p2808
I00
sVcontains(J)
p2809
I00
sg44
tp2810
a((dp2811
Vcontains(u)
p2812
I00
sVcontains(O)
p2813
I00
sVcontains(M)
p2814
I00
sVcontains(S)
p2815
I00
sVcontains(Q)
p2816
I00
sVcontains(d)
p2817
I00
sVcontains(W)
p2818
I00
sVcontains(C)
p2819
I01
sVcontains(A)
p2820
I00
sVcontains(o)
p2821
I00
sVcontains(T)
p2822
I00
sVcontains(Z)
p2823
I00
sVcontains(G)
p2824
I01
sVcontains(E)
p2825
I00
sVcontains(s)
p2826
I00
sVcontains(K)
p2827
I00
sVcontains(I)
p2828
I00
sVcontains(c)
p2829
I00
sVcontains(H)
p2830
I00
sVcontains(N)
p2831
I01
sVcontains(g)
p2832
I00
sVcontains(L)
p2833
I00
sVcontains(e)
p2834
I00
sVcontains(R)
p2835
I01
sVcontains(P)
p2836
I00
sVcontains(V)
p2837
I00
sVcontains(U)
p2838
I00
sVcontains(B)
p2839
I00
sVcontains(h)
p2840
I00
sVcontains(Y)
p2841
I00
sVcontains(F)
p2842
I00
sVcontains(D)
p2843
I00
sVcontains(J)
p2844
I00
sg44
tp2845
a((dp2846
Vcontains(u)
p2847
I00
sVcontains(O)
p2848
I00
sVcontains(M)
p2849
I00
sVcontains(S)
p2850
I00
sVcontains(Q)
p2851
I00
sVcontains(d)
p2852
I00
sVcontains(W)
p2853
I00
sVcontains(C)
p2854
I01
sVcontains(A)
p2855
I00
sVcontains(o)
p2856
I00
sVcontains(T)
p2857
I01
sVcontains(Z)
p2858
I00
sVcontains(G)
p2859
I01
sVcontains(E)
p2860
I00
sVcontains(s)
p2861
I00
sVcontains(K)
p2862
I00
sVcontains(I)
p2863
I00
sVcontains(c)
p2864
I00
sVcontains(H)
p2865
I00
sVcontains(N)
p2866
I00
sVcontains(g)
p2867
I00
sVcontains(L)
p2868
I00
sVcontains(e)
p2869
I00
sVcontains(R)
p2870
I00
sVcontains(P)
p2871
I00
sVcontains(V)
p2872
I00
sVcontains(U)
p2873
I00
sVcontains(B)
p2874
I00
sVcontains(h)
p2875
I00
sVcontains(Y)
p2876
I00
sVcontains(F)
p2877
I00
sVcontains(D)
p2878
I00
sVcontains(J)
p2879
I00
sg44
tp2880
a((dp2881
Vcontains(u)
p2882
I00
sVcontains(O)
p2883
I00
sVcontains(M)
p2884
I00
sVcontains(S)
p2885
I01
sVcontains(Q)
p2886
I00
sVcontains(d)
p2887
I00
sVcontains(W)
p2888
I00
sVcontains(C)
p2889
I01
sVcontains(A)
p2890
I00
sVcontains(o)
p2891
I00
sVcontains(T)
p2892
I00
sVcontains(Z)
p2893
I00
sVcontains(G)
p2894
I00
sVcontains(E)
p2895
I01
sVcontains(s)
p2896
I00
sVcontains(K)
p2897
I00
sVcontains(I)
p2898
I00
sVcontains(c)
p2899
I00
sVcontains(H)
p2900
I01
sVcontains(N)
p2901
I00
sVcontains(g)
p2902
I00
sVcontains(L)
p2903
I00
sVcontains(e)
p2904
I00
sVcontains(R)
p2905
I00
sVcontains(P)
p2906
I00
sVcontains(V)
p2907
I00
sVcontains(U)
p2908
I00
sVcontains(B)
p2909
I00
sVcontains(h)
p2910
I00
sVcontains(Y)
p2911
I00
sVcontains(F)
p2912
I00
sVcontains(D)
p2913
I00
sVcontains(J)
p2914
I00
sg44
tp2915
a((dp2916
Vcontains(u)
p2917
I00
sVcontains(O)
p2918
I00
sVcontains(M)
p2919
I00
sVcontains(S)
p2920
I00
sVcontains(Q)
p2921
I00
sVcontains(d)
p2922
I00
sVcontains(W)
p2923
I00
sVcontains(C)
p2924
I01
sVcontains(A)
p2925
I00
sVcontains(o)
p2926
I00
sVcontains(T)
p2927
I00
sVcontains(Z)
p2928
I00
sVcontains(G)
p2929
I00
sVcontains(E)
p2930
I00
sVcontains(s)
p2931
I00
sVcontains(K)
p2932
I00
sVcontains(I)
p2933
I00
sVcontains(c)
p2934
I00
sVcontains(H)
p2935
I01
sVcontains(N)
p2936
I01
sVcontains(g)
p2937
I00
sVcontains(L)
p2938
I00
sVcontains(e)
p2939
I00
sVcontains(R)
p2940
I00
sVcontains(P)
p2941
I00
sVcontains(V)
p2942
I00
sVcontains(U)
p2943
I00
sVcontains(B)
p2944
I00
sVcontains(h)
p2945
I00
sVcontains(Y)
p2946
I00
sVcontains(F)
p2947
I00
sVcontains(D)
p2948
I00
sVcontains(J)
p2949
I00
sg44
tp2950
a((dp2951
Vcontains(u)
p2952
I00
sVcontains(O)
p2953
I00
sVcontains(M)
p2954
I00
sVcontains(S)
p2955
I00
sVcontains(Q)
p2956
I00
sVcontains(d)
p2957
I00
sVcontains(W)
p2958
I00
sVcontains(C)
p2959
I01
sVcontains(A)
p2960
I00
sVcontains(o)
p2961
I00
sVcontains(T)
p2962
I00
sVcontains(Z)
p2963
I00
sVcontains(G)
p2964
I00
sVcontains(E)
p2965
I00
sVcontains(s)
p2966
I00
sVcontains(K)
p2967
I00
sVcontains(I)
p2968
I00
sVcontains(c)
p2969
I00
sVcontains(H)
p2970
I01
sVcontains(N)
p2971
I01
sVcontains(g)
p2972
I00
sVcontains(L)
p2973
I00
sVcontains(e)
p2974
I00
sVcontains(R)
p2975
I01
sVcontains(P)
p2976
I00
sVcontains(V)
p2977
I00
sVcontains(U)
p2978
I00
sVcontains(B)
p2979
I00
sVcontains(h)
p2980
I00
sVcontains(Y)
p2981
I00
sVcontains(F)
p2982
I00
sVcontains(D)
p2983
I00
sVcontains(J)
p2984
I00
sg44
tp2985
a((dp2986
Vcontains(u)
p2987
I00
sVcontains(O)
p2988
I00
sVcontains(M)
p2989
I00
sVcontains(S)
p2990
I00
sVcontains(Q)
p2991
I00
sVcontains(d)
p2992
I00
sVcontains(W)
p2993
I00
sVcontains(C)
p2994
I01
sVcontains(A)
p2995
I00
sVcontains(o)
p2996
I00
sVcontains(T)
p2997
I01
sVcontains(Z)
p2998
I00
sVcontains(G)
p2999
I00
sVcontains(E)
p3000
I00
sVcontains(s)
p3001
I00
sVcontains(K)
p3002
I00
sVcontains(I)
p3003
I00
sVcontains(c)
p3004
I00
sVcontains(H)
p3005
I01
sVcontains(N)
p3006
I00
sVcontains(g)
p3007
I00
sVcontains(L)
p3008
I00
sVcontains(e)
p3009
I00
sVcontains(R)
p3010
I00
sVcontains(P)
p3011
I00
sVcontains(V)
p3012
I00
sVcontains(U)
p3013
I00
sVcontains(B)
p3014
I00
sVcontains(h)
p3015
I00
sVcontains(Y)
p3016
I00
sVcontains(F)
p3017
I00
sVcontains(D)
p3018
I00
sVcontains(J)
p3019
I00
sg44
tp3020
a((dp3021
Vcontains(u)
p3022
I00
sVcontains(O)
p3023
I00
sVcontains(M)
p3024
I00
sVcontains(S)
p3025
I00
sVcontains(Q)
p3026
I00
sVcontains(d)
p3027
I00
sVcontains(W)
p3028
I00
sVcontains(C)
p3029
I01
sVcontains(A)
p3030
I00
sVcontains(o)
p3031
I00
sVcontains(T)
p3032
I00
sVcontains(Z)
p3033
I00
sVcontains(G)
p3034
I00
sVcontains(E)
p3035
I00
sVcontains(s)
p3036
I00
sVcontains(K)
p3037
I00
sVcontains(I)
p3038
I00
sVcontains(c)
p3039
I00
sVcontains(H)
p3040
I01
sVcontains(N)
p3041
I00
sVcontains(g)
p3042
I00
sVcontains(L)
p3043
I00
sVcontains(e)
p3044
I00
sVcontains(R)
p3045
I00
sVcontains(P)
p3046
I00
sVcontains(V)
p3047
I00
sVcontains(U)
p3048
I01
sVcontains(B)
p3049
I00
sVcontains(h)
p3050
I00
sVcontains(Y)
p3051
I00
sVcontains(F)
p3052
I00
sVcontains(D)
p3053
I00
sVcontains(J)
p3054
I00
sg44
tp3055
a((dp3056
Vcontains(u)
p3057
I00
sVcontains(O)
p3058
I00
sVcontains(M)
p3059
I00
sVcontains(S)
p3060
I00
sVcontains(Q)
p3061
I00
sVcontains(d)
p3062
I00
sVcontains(W)
p3063
I00
sVcontains(C)
p3064
I01
sVcontains(A)
p3065
I00
sVcontains(o)
p3066
I00
sVcontains(T)
p3067
I00
sVcontains(Z)
p3068
I00
sVcontains(G)
p3069
I00
sVcontains(E)
p3070
I00
sVcontains(s)
p3071
I00
sVcontains(K)
p3072
I00
sVcontains(I)
p3073
I01
sVcontains(c)
p3074
I00
sVcontains(H)
p3075
I00
sVcontains(N)
p3076
I00
sVcontains(g)
p3077
I00
sVcontains(L)
p3078
I00
sVcontains(e)
p3079
I00
sVcontains(R)
p3080
I00
sVcontains(P)
p3081
I00
sVcontains(V)
p3082
I00
sVcontains(U)
p3083
I00
sVcontains(B)
p3084
I00
sVcontains(h)
p3085
I00
sVcontains(Y)
p3086
I00
sVcontains(F)
p3087
I00
sVcontains(D)
p3088
I00
sVcontains(J)
p3089
I00
sg44
tp3090
a((dp3091
Vcontains(u)
p3092
I00
sVcontains(O)
p3093
I00
sVcontains(M)
p3094
I00
sVcontains(S)
p3095
I00
sVcontains(Q)
p3096
I00
sVcontains(d)
p3097
I00
sVcontains(W)
p3098
I00
sVcontains(C)
p3099
I01
sVcontains(A)
p3100
I01
sVcontains(o)
p3101
I00
sVcontains(T)
p3102
I00
sVcontains(Z)
p3103
I00
sVcontains(G)
p3104
I00
sVcontains(E)
p3105
I00
sVcontains(s)
p3106
I00
sVcontains(K)
p3107
I00
sVcontains(I)
p3108
I00
sVcontains(c)
p3109
I00
sVcontains(H)
p3110
I00
sVcontains(N)
p3111
I00
sVcontains(g)
p3112
I00
sVcontains(L)
p3113
I01
sVcontains(e)
p3114
I00
sVcontains(R)
p3115
I00
sVcontains(P)
p3116
I00
sVcontains(V)
p3117
I00
sVcontains(U)
p3118
I00
sVcontains(B)
p3119
I00
sVcontains(h)
p3120
I00
sVcontains(Y)
p3121
I00
sVcontains(F)
p3122
I00
sVcontains(D)
p3123
I00
sVcontains(J)
p3124
I00
sg44
tp3125
a((dp3126
Vcontains(u)
p3127
I00
sVcontains(O)
p3128
I00
sVcontains(M)
p3129
I00
sVcontains(S)
p3130
I00
sVcontains(Q)
p3131
I00
sVcontains(d)
p3132
I00
sVcontains(W)
p3133
I00
sVcontains(C)
p3134
I01
sVcontains(A)
p3135
I00
sVcontains(o)
p3136
I00
sVcontains(T)
p3137
I00
sVcontains(Z)
p3138
I00
sVcontains(G)
p3139
I00
sVcontains(E)
p3140
I01
sVcontains(s)
p3141
I00
sVcontains(K)
p3142
I00
sVcontains(I)
p3143
I00
sVcontains(c)
p3144
I00
sVcontains(H)
p3145
I00
sVcontains(N)
p3146
I00
sVcontains(g)
p3147
I00
sVcontains(L)
p3148
I01
sVcontains(e)
p3149
I00
sVcontains(R)
p3150
I00
sVcontains(P)
p3151
I00
sVcontains(V)
p3152
I00
sVcontains(U)
p3153
I00
sVcontains(B)
p3154
I00
sVcontains(h)
p3155
I00
sVcontains(Y)
p3156
I00
sVcontains(F)
p3157
I00
sVcontains(D)
p3158
I00
sVcontains(J)
p3159
I00
sg44
tp3160
a((dp3161
Vcontains(u)
p3162
I00
sVcontains(O)
p3163
I00
sVcontains(M)
p3164
I00
sVcontains(S)
p3165
I00
sVcontains(Q)
p3166
I00
sVcontains(d)
p3167
I00
sVcontains(W)
p3168
I00
sVcontains(C)
p3169
I01
sVcontains(A)
p3170
I00
sVcontains(o)
p3171
I00
sVcontains(T)
p3172
I00
sVcontains(Z)
p3173
I00
sVcontains(G)
p3174
I00
sVcontains(E)
p3175
I00
sVcontains(s)
p3176
I00
sVcontains(K)
p3177
I00
sVcontains(I)
p3178
I00
sVcontains(c)
p3179
I00
sVcontains(H)
p3180
I00
sVcontains(N)
p3181
I01
sVcontains(g)
p3182
I00
sVcontains(L)
p3183
I01
sVcontains(e)
p3184
I00
sVcontains(R)
p3185
I00
sVcontains(P)
p3186
I00
sVcontains(V)
p3187
I00
sVcontains(U)
p3188
I00
sVcontains(B)
p3189
I00
sVcontains(h)
p3190
I00
sVcontains(Y)
p3191
I00
sVcontains(F)
p3192
I00
sVcontains(D)
p3193
I00
sVcontains(J)
p3194
I00
sg44
tp3195
a((dp3196
Vcontains(u)
p3197
I00
sVcontains(O)
p3198
I00
sVcontains(M)
p3199
I00
sVcontains(S)
p3200
I00
sVcontains(Q)
p3201
I00
sVcontains(d)
p3202
I00
sVcontains(W)
p3203
I00
sVcontains(C)
p3204
I01
sVcontains(A)
p3205
I00
sVcontains(o)
p3206
I00
sVcontains(T)
p3207
I00
sVcontains(Z)
p3208
I00
sVcontains(G)
p3209
I00
sVcontains(E)
p3210
I00
sVcontains(s)
p3211
I00
sVcontains(K)
p3212
I00
sVcontains(I)
p3213
I01
sVcontains(c)
p3214
I00
sVcontains(H)
p3215
I00
sVcontains(N)
p3216
I01
sVcontains(g)
p3217
I00
sVcontains(L)
p3218
I01
sVcontains(e)
p3219
I00
sVcontains(R)
p3220
I00
sVcontains(P)
p3221
I01
sVcontains(V)
p3222
I00
sVcontains(U)
p3223
I00
sVcontains(B)
p3224
I00
sVcontains(h)
p3225
I00
sVcontains(Y)
p3226
I00
sVcontains(F)
p3227
I00
sVcontains(D)
p3228
I00
sVcontains(J)
p3229
I00
sg44
tp3230
a((dp3231
Vcontains(u)
p3232
I00
sVcontains(O)
p3233
I00
sVcontains(M)
p3234
I00
sVcontains(S)
p3235
I01
sVcontains(Q)
p3236
I00
sVcontains(d)
p3237
I00
sVcontains(W)
p3238
I00
sVcontains(C)
p3239
I01
sVcontains(A)
p3240
I00
sVcontains(o)
p3241
I00
sVcontains(T)
p3242
I00
sVcontains(Z)
p3243
I00
sVcontains(G)
p3244
I00
sVcontains(E)
p3245
I00
sVcontains(s)
p3246
I00
sVcontains(K)
p3247
I00
sVcontains(I)
p3248
I00
sVcontains(c)
p3249
I00
sVcontains(H)
p3250
I00
sVcontains(N)
p3251
I00
sVcontains(g)
p3252
I00
sVcontains(L)
p3253
I01
sVcontains(e)
p3254
I00
sVcontains(R)
p3255
I00
sVcontains(P)
p3256
I00
sVcontains(V)
p3257
I00
sVcontains(U)
p3258
I00
sVcontains(B)
p3259
I00
sVcontains(h)
p3260
I00
sVcontains(Y)
p3261
I00
sVcontains(F)
p3262
I00
sVcontains(D)
p3263
I00
sVcontains(J)
p3264
I00
sg44
tp3265
a((dp3266
Vcontains(u)
p3267
I00
sVcontains(O)
p3268
I00
sVcontains(M)
p3269
I00
sVcontains(S)
p3270
I00
sVcontains(Q)
p3271
I00
sVcontains(d)
p3272
I00
sVcontains(W)
p3273
I00
sVcontains(C)
p3274
I01
sVcontains(A)
p3275
I00
sVcontains(o)
p3276
I00
sVcontains(T)
p3277
I01
sVcontains(Z)
p3278
I00
sVcontains(G)
p3279
I00
sVcontains(E)
p3280
I00
sVcontains(s)
p3281
I00
sVcontains(K)
p3282
I00
sVcontains(I)
p3283
I00
sVcontains(c)
p3284
I00
sVcontains(H)
p3285
I00
sVcontains(N)
p3286
I00
sVcontains(g)
p3287
I00
sVcontains(L)
p3288
I01
sVcontains(e)
p3289
I00
sVcontains(R)
p3290
I00
sVcontains(P)
p3291
I00
sVcontains(V)
p3292
I00
sVcontains(U)
p3293
I00
sVcontains(B)
p3294
I00
sVcontains(h)
p3295
I00
sVcontains(Y)
p3296
I00
sVcontains(F)
p3297
I00
sVcontains(D)
p3298
I00
sVcontains(J)
p3299
I00
sg44
tp3300
a((dp3301
Vcontains(u)
p3302
I00
sVcontains(O)
p3303
I00
sVcontains(M)
p3304
I01
sVcontains(S)
p3305
I00
sVcontains(Q)
p3306
I00
sVcontains(d)
p3307
I00
sVcontains(W)
p3308
I00
sVcontains(C)
p3309
I01
sVcontains(A)
p3310
I00
sVcontains(o)
p3311
I00
sVcontains(T)
p3312
I00
sVcontains(Z)
p3313
I00
sVcontains(G)
p3314
I00
sVcontains(E)
p3315
I00
sVcontains(s)
p3316
I00
sVcontains(K)
p3317
I00
sVcontains(I)
p3318
I00
sVcontains(c)
p3319
I00
sVcontains(H)
p3320
I00
sVcontains(N)
p3321
I00
sVcontains(g)
p3322
I00
sVcontains(L)
p3323
I00
sVcontains(e)
p3324
I00
sVcontains(R)
p3325
I00
sVcontains(P)
p3326
I00
sVcontains(V)
p3327
I00
sVcontains(U)
p3328
I00
sVcontains(B)
p3329
I00
sVcontains(h)
p3330
I00
sVcontains(Y)
p3331
I00
sVcontains(F)
p3332
I00
sVcontains(D)
p3333
I00
sVcontains(J)
p3334
I00
sg44
tp3335
a((dp3336
Vcontains(u)
p3337
I00
sVcontains(O)
p3338
I00
sVcontains(M)
p3339
I01
sVcontains(S)
p3340
I00
sVcontains(Q)
p3341
I00
sVcontains(d)
p3342
I00
sVcontains(W)
p3343
I00
sVcontains(C)
p3344
I01
sVcontains(A)
p3345
I01
sVcontains(o)
p3346
I00
sVcontains(T)
p3347
I00
sVcontains(Z)
p3348
I00
sVcontains(G)
p3349
I00
sVcontains(E)
p3350
I00
sVcontains(s)
p3351
I00
sVcontains(K)
p3352
I00
sVcontains(I)
p3353
I00
sVcontains(c)
p3354
I00
sVcontains(H)
p3355
I00
sVcontains(N)
p3356
I00
sVcontains(g)
p3357
I00
sVcontains(L)
p3358
I00
sVcontains(e)
p3359
I00
sVcontains(R)
p3360
I00
sVcontains(P)
p3361
I00
sVcontains(V)
p3362
I00
sVcontains(U)
p3363
I00
sVcontains(B)
p3364
I00
sVcontains(h)
p3365
I00
sVcontains(Y)
p3366
I00
sVcontains(F)
p3367
I00
sVcontains(D)
p3368
I00
sVcontains(J)
p3369
I00
sg44
tp3370
a((dp3371
Vcontains(u)
p3372
I00
sVcontains(O)
p3373
I00
sVcontains(M)
p3374
I01
sVcontains(S)
p3375
I00
sVcontains(Q)
p3376
I00
sVcontains(d)
p3377
I00
sVcontains(W)
p3378
I00
sVcontains(C)
p3379
I01
sVcontains(A)
p3380
I01
sVcontains(o)
p3381
I00
sVcontains(T)
p3382
I00
sVcontains(Z)
p3383
I00
sVcontains(G)
p3384
I00
sVcontains(E)
p3385
I00
sVcontains(s)
p3386
I00
sVcontains(K)
p3387
I00
sVcontains(I)
p3388
I00
sVcontains(c)
p3389
I00
sVcontains(H)
p3390
I00
sVcontains(N)
p3391
I00
sVcontains(g)
p3392
I00
sVcontains(L)
p3393
I00
sVcontains(e)
p3394
I00
sVcontains(R)
p3395
I00
sVcontains(P)
p3396
I00
sVcontains(V)
p3397
I00
sVcontains(U)
p3398
I00
sVcontains(B)
p3399
I00
sVcontains(h)
p3400
I00
sVcontains(Y)
p3401
I00
sVcontains(F)
p3402
I00
sVcontains(D)
p3403
I00
sVcontains(J)
p3404
I00
sg44
tp3405
a((dp3406
Vcontains(u)
p3407
I00
sVcontains(O)
p3408
I00
sVcontains(M)
p3409
I01
sVcontains(S)
p3410
I00
sVcontains(Q)
p3411
I00
sVcontains(d)
p3412
I00
sVcontains(W)
p3413
I00
sVcontains(C)
p3414
I01
sVcontains(A)
p3415
I01
sVcontains(o)
p3416
I00
sVcontains(T)
p3417
I00
sVcontains(Z)
p3418
I00
sVcontains(G)
p3419
I00
sVcontains(E)
p3420
I00
sVcontains(s)
p3421
I00
sVcontains(K)
p3422
I00
sVcontains(I)
p3423
I00
sVcontains(c)
p3424
I00
sVcontains(H)
p3425
I00
sVcontains(N)
p3426
I00
sVcontains(g)
p3427
I00
sVcontains(L)
p3428
I00
sVcontains(e)
p3429
I00
sVcontains(R)
p3430
I00
sVcontains(P)
p3431
I00
sVcontains(V)
p3432
I00
sVcontains(U)
p3433
I00
sVcontains(B)
p3434
I00
sVcontains(h)
p3435
I00
sVcontains(Y)
p3436
I00
sVcontains(F)
p3437
I00
sVcontains(D)
p3438
I00
sVcontains(J)
p3439
I00
sg44
tp3440
a((dp3441
Vcontains(u)
p3442
I00
sVcontains(O)
p3443
I00
sVcontains(M)
p3444
I01
sVcontains(S)
p3445
I00
sVcontains(Q)
p3446
I00
sVcontains(d)
p3447
I00
sVcontains(W)
p3448
I00
sVcontains(C)
p3449
I01
sVcontains(A)
p3450
I00
sVcontains(o)
p3451
I00
sVcontains(T)
p3452
I00
sVcontains(Z)
p3453
I00
sVcontains(G)
p3454
I00
sVcontains(E)
p3455
I00
sVcontains(s)
p3456
I00
sVcontains(K)
p3457
I00
sVcontains(I)
p3458
I00
sVcontains(c)
p3459
I00
sVcontains(H)
p3460
I00
sVcontains(N)
p3461
I01
sVcontains(g)
p3462
I00
sVcontains(L)
p3463
I00
sVcontains(e)
p3464
I00
sVcontains(R)
p3465
I00
sVcontains(P)
p3466
I00
sVcontains(V)
p3467
I00
sVcontains(U)
p3468
I00
sVcontains(B)
p3469
I00
sVcontains(h)
p3470
I00
sVcontains(Y)
p3471
I00
sVcontains(F)
p3472
I00
sVcontains(D)
p3473
I00
sVcontains(J)
p3474
I00
sg44
tp3475
a((dp3476
Vcontains(u)
p3477
I00
sVcontains(O)
p3478
I00
sVcontains(M)
p3479
I01
sVcontains(S)
p3480
I01
sVcontains(Q)
p3481
I00
sVcontains(d)
p3482
I00
sVcontains(W)
p3483
I00
sVcontains(C)
p3484
I01
sVcontains(A)
p3485
I00
sVcontains(o)
p3486
I00
sVcontains(T)
p3487
I00
sVcontains(Z)
p3488
I00
sVcontains(G)
p3489
I00
sVcontains(E)
p3490
I00
sVcontains(s)
p3491
I00
sVcontains(K)
p3492
I00
sVcontains(I)
p3493
I00
sVcontains(c)
p3494
I00
sVcontains(H)
p3495
I00
sVcontains(N)
p3496
I00
sVcontains(g)
p3497
I00
sVcontains(L)
p3498
I00
sVcontains(e)
p3499
I00
sVcontains(R)
p3500
I00
sVcontains(P)
p3501
I00
sVcontains(V)
p3502
I00
sVcontains(U)
p3503
I00
sVcontains(B)
p3504
I00
sVcontains(h)
p3505
I00
sVcontains(Y)
p3506
I00
sVcontains(F)
p3507
I00
sVcontains(D)
p3508
I01
sVcontains(J)
p3509
I00
sg44
tp3510
a((dp3511
Vcontains(u)
p3512
I00
sVcontains(O)
p3513
I00
sVcontains(M)
p3514
I01
sVcontains(S)
p3515
I01
sVcontains(Q)
p3516
I00
sVcontains(d)
p3517
I00
sVcontains(W)
p3518
I00
sVcontains(C)
p3519
I01
sVcontains(A)
p3520
I00
sVcontains(o)
p3521
I00
sVcontains(T)
p3522
I00
sVcontains(Z)
p3523
I00
sVcontains(G)
p3524
I00
sVcontains(E)
p3525
I00
sVcontains(s)
p3526
I00
sVcontains(K)
p3527
I00
sVcontains(I)
p3528
I00
sVcontains(c)
p3529
I00
sVcontains(H)
p3530
I00
sVcontains(N)
p3531
I01
sVcontains(g)
p3532
I00
sVcontains(L)
p3533
I00
sVcontains(e)
p3534
I00
sVcontains(R)
p3535
I01
sVcontains(P)
p3536
I00
sVcontains(V)
p3537
I00
sVcontains(U)
p3538
I00
sVcontains(B)
p3539
I00
sVcontains(h)
p3540
I00
sVcontains(Y)
p3541
I00
sVcontains(F)
p3542
I00
sVcontains(D)
p3543
I00
sVcontains(J)
p3544
I00
sg44
tp3545
a((dp3546
Vcontains(u)
p3547
I00
sVcontains(O)
p3548
I00
sVcontains(M)
p3549
I00
sVcontains(S)
p3550
I00
sVcontains(Q)
p3551
I00
sVcontains(d)
p3552
I00
sVcontains(W)
p3553
I00
sVcontains(C)
p3554
I00
sVcontains(A)
p3555
I01
sVcontains(o)
p3556
I00
sVcontains(T)
p3557
I00
sVcontains(Z)
p3558
I00
sVcontains(G)
p3559
I01
sVcontains(E)
p3560
I01
sVcontains(s)
p3561
I00
sVcontains(K)
p3562
I00
sVcontains(I)
p3563
I00
sVcontains(c)
p3564
I00
sVcontains(H)
p3565
I00
sVcontains(N)
p3566
I00
sVcontains(g)
p3567
I00
sVcontains(L)
p3568
I00
sVcontains(e)
p3569
I00
sVcontains(R)
p3570
I01
sVcontains(P)
p3571
I00
sVcontains(V)
p3572
I00
sVcontains(U)
p3573
I00
sVcontains(B)
p3574
I01
sVcontains(h)
p3575
I00
sVcontains(Y)
p3576
I00
sVcontains(F)
p3577
I00
sVcontains(D)
p3578
I00
sVcontains(J)
p3579
I00
sS'name'
p3580
tp3581
a((dp3582
Vcontains(u)
p3583
I00
sVcontains(O)
p3584
I00
sVcontains(M)
p3585
I00
sVcontains(S)
p3586
I00
sVcontains(Q)
p3587
I00
sVcontains(d)
p3588
I00
sVcontains(W)
p3589
I00
sVcontains(C)
p3590
I00
sVcontains(A)
p3591
I01
sVcontains(o)
p3592
I00
sVcontains(T)
p3593
I00
sVcontains(Z)
p3594
I00
sVcontains(G)
p3595
I00
sVcontains(E)
p3596
I00
sVcontains(s)
p3597
I00
sVcontains(K)
p3598
I00
sVcontains(I)
p3599
I00
sVcontains(c)
p3600
I00
sVcontains(H)
p3601
I00
sVcontains(N)
p3602
I00
sVcontains(g)
p3603
I00
sVcontains(L)
p3604
I00
sVcontains(e)
p3605
I00
sVcontains(R)
p3606
I00
sVcontains(P)
p3607
I00
sVcontains(V)
p3608
I00
sVcontains(U)
p3609
I00
sVcontains(B)
p3610
I01
sVcontains(h)
p3611
I00
sVcontains(Y)
p3612
I01
sVcontains(F)
p3613
I00
sVcontains(D)
p3614
I00
sVcontains(J)
p3615
I00
sg3580
tp3616
a((dp3617
Vcontains(u)
p3618
I00
sVcontains(O)
p3619
I00
sVcontains(M)
p3620
I00
sVcontains(S)
p3621
I00
sVcontains(Q)
p3622
I00
sVcontains(d)
p3623
I00
sVcontains(W)
p3624
I00
sVcontains(C)
p3625
I00
sVcontains(A)
p3626
I01
sVcontains(o)
p3627
I00
sVcontains(T)
p3628
I00
sVcontains(Z)
p3629
I00
sVcontains(G)
p3630
I00
sVcontains(E)
p3631
I00
sVcontains(s)
p3632
I00
sVcontains(K)
p3633
I00
sVcontains(I)
p3634
I00
sVcontains(c)
p3635
I00
sVcontains(H)
p3636
I00
sVcontains(N)
p3637
I01
sVcontains(g)
p3638
I00
sVcontains(L)
p3639
I01
sVcontains(e)
p3640
I00
sVcontains(R)
p3641
I00
sVcontains(P)
p3642
I00
sVcontains(V)
p3643
I00
sVcontains(U)
p3644
I00
sVcontains(B)
p3645
I00
sVcontains(h)
p3646
I00
sVcontains(Y)
p3647
I00
sVcontains(F)
p3648
I00
sVcontains(D)
p3649
I01
sVcontains(J)
p3650
I00
sg3580
tp3651
a((dp3652
Vcontains(u)
p3653
I00
sVcontains(O)
p3654
I00
sVcontains(M)
p3655
I00
sVcontains(S)
p3656
I00
sVcontains(Q)
p3657
I00
sVcontains(d)
p3658
I00
sVcontains(W)
p3659
I00
sVcontains(C)
p3660
I00
sVcontains(A)
p3661
I01
sVcontains(o)
p3662
I00
sVcontains(T)
p3663
I01
sVcontains(Z)
p3664
I00
sVcontains(G)
p3665
I00
sVcontains(E)
p3666
I01
sVcontains(s)
p3667
I00
sVcontains(K)
p3668
I00
sVcontains(I)
p3669
I00
sVcontains(c)
p3670
I00
sVcontains(H)
p3671
I00
sVcontains(N)
p3672
I00
sVcontains(g)
p3673
I00
sVcontains(L)
p3674
I00
sVcontains(e)
p3675
I00
sVcontains(R)
p3676
I00
sVcontains(P)
p3677
I00
sVcontains(V)
p3678
I00
sVcontains(U)
p3679
I00
sVcontains(B)
p3680
I00
sVcontains(h)
p3681
I00
sVcontains(Y)
p3682
I00
sVcontains(F)
p3683
I01
sVcontains(D)
p3684
I01
sVcontains(J)
p3685
I00
sg3580
tp3686
a((dp3687
Vcontains(u)
p3688
I00
sVcontains(O)
p3689
I00
sVcontains(M)
p3690
I00
sVcontains(S)
p3691
I00
sVcontains(Q)
p3692
I00
sVcontains(d)
p3693
I00
sVcontains(W)
p3694
I00
sVcontains(C)
p3695
I00
sVcontains(A)
p3696
I01
sVcontains(o)
p3697
I00
sVcontains(T)
p3698
I00
sVcontains(Z)
p3699
I00
sVcontains(G)
p3700
I01
sVcontains(E)
p3701
I00
sVcontains(s)
p3702
I00
sVcontains(K)
p3703
I00
sVcontains(I)
p3704
I00
sVcontains(c)
p3705
I00
sVcontains(H)
p3706
I00
sVcontains(N)
p3707
I00
sVcontains(g)
p3708
I00
sVcontains(L)
p3709
I00
sVcontains(e)
p3710
I00
sVcontains(R)
p3711
I01
sVcontains(P)
p3712
I00
sVcontains(V)
p3713
I00
sVcontains(U)
p3714
I00
sVcontains(B)
p3715
I00
sVcontains(h)
p3716
I00
sVcontains(Y)
p3717
I00
sVcontains(F)
p3718
I00
sVcontains(D)
p3719
I01
sVcontains(J)
p3720
I00
sg3580
tp3721
a((dp3722
Vcontains(u)
p3723
I00
sVcontains(O)
p3724
I00
sVcontains(M)
p3725
I00
sVcontains(S)
p3726
I00
sVcontains(Q)
p3727
I00
sVcontains(d)
p3728
I00
sVcontains(W)
p3729
I00
sVcontains(C)
p3730
I00
sVcontains(A)
p3731
I01
sVcontains(o)
p3732
I00
sVcontains(T)
p3733
I00
sVcontains(Z)
p3734
I00
sVcontains(G)
p3735
I01
sVcontains(E)
p3736
I00
sVcontains(s)
p3737
I00
sVcontains(K)
p3738
I00
sVcontains(I)
p3739
I00
sVcontains(c)
p3740
I00
sVcontains(H)
p3741
I00
sVcontains(N)
p3742
I00
sVcontains(g)
p3743
I00
sVcontains(L)
p3744
I00
sVcontains(e)
p3745
I00
sVcontains(R)
p3746
I01
sVcontains(P)
p3747
I00
sVcontains(V)
p3748
I00
sVcontains(U)
p3749
I00
sVcontains(B)
p3750
I00
sVcontains(h)
p3751
I00
sVcontains(Y)
p3752
I00
sVcontains(F)
p3753
I00
sVcontains(D)
p3754
I01
sVcontains(J)
p3755
I00
sg3580
tp3756
a((dp3757
Vcontains(u)
p3758
I00
sVcontains(O)
p3759
I00
sVcontains(M)
p3760
I00
sVcontains(S)
p3761
I01
sVcontains(Q)
p3762
I00
sVcontains(d)
p3763
I00
sVcontains(W)
p3764
I00
sVcontains(C)
p3765
I00
sVcontains(A)
p3766
I01
sVcontains(o)
p3767
I00
sVcontains(T)
p3768
I00
sVcontains(Z)
p3769
I00
sVcontains(G)
p3770
I01
sVcontains(E)
p3771
I01
sVcontains(s)
p3772
I00
sVcontains(K)
p3773
I00
sVcontains(I)
p3774
I00
sVcontains(c)
p3775
I00
sVcontains(H)
p3776
I00
sVcontains(N)
p3777
I01
sVcontains(g)
p3778
I00
sVcontains(L)
p3779
I00
sVcontains(e)
p3780
I00
sVcontains(R)
p3781
I00
sVcontains(P)
p3782
I00
sVcontains(V)
p3783
I00
sVcontains(U)
p3784
I00
sVcontains(B)
p3785
I00
sVcontains(h)
p3786
I00
sVcontains(Y)
p3787
I00
sVcontains(F)
p3788
I00
sVcontains(D)
p3789
I00
sVcontains(J)
p3790
I00
sg3580
tp3791
a((dp3792
Vcontains(u)
p3793
I00
sVcontains(O)
p3794
I00
sVcontains(M)
p3795
I00
sVcontains(S)
p3796
I00
sVcontains(Q)
p3797
I00
sVcontains(d)
p3798
I00
sVcontains(W)
p3799
I00
sVcontains(C)
p3800
I00
sVcontains(A)
p3801
I01
sVcontains(o)
p3802
I00
sVcontains(T)
p3803
I00
sVcontains(Z)
p3804
I00
sVcontains(G)
p3805
I00
sVcontains(E)
p3806
I01
sVcontains(s)
p3807
I00
sVcontains(K)
p3808
I01
sVcontains(I)
p3809
I00
sVcontains(c)
p3810
I00
sVcontains(H)
p3811
I00
sVcontains(N)
p3812
I00
sVcontains(g)
p3813
I00
sVcontains(L)
p3814
I00
sVcontains(e)
p3815
I00
sVcontains(R)
p3816
I01
sVcontains(P)
p3817
I00
sVcontains(V)
p3818
I00
sVcontains(U)
p3819
I00
sVcontains(B)
p3820
I00
sVcontains(h)
p3821
I00
sVcontains(Y)
p3822
I00
sVcontains(F)
p3823
I00
sVcontains(D)
p3824
I00
sVcontains(J)
p3825
I00
sg3580
tp3826
a((dp3827
Vcontains(u)
p3828
I00
sVcontains(O)
p3829
I00
sVcontains(M)
p3830
I00
sVcontains(S)
p3831
I01
sVcontains(Q)
p3832
I00
sVcontains(d)
p3833
I00
sVcontains(W)
p3834
I00
sVcontains(C)
p3835
I00
sVcontains(A)
p3836
I01
sVcontains(o)
p3837
I00
sVcontains(T)
p3838
I00
sVcontains(Z)
p3839
I00
sVcontains(G)
p3840
I00
sVcontains(E)
p3841
I00
sVcontains(s)
p3842
I00
sVcontains(K)
p3843
I01
sVcontains(I)
p3844
I00
sVcontains(c)
p3845
I00
sVcontains(H)
p3846
I01
sVcontains(N)
p3847
I00
sVcontains(g)
p3848
I00
sVcontains(L)
p3849
I00
sVcontains(e)
p3850
I00
sVcontains(R)
p3851
I00
sVcontains(P)
p3852
I00
sVcontains(V)
p3853
I00
sVcontains(U)
p3854
I01
sVcontains(B)
p3855
I00
sVcontains(h)
p3856
I00
sVcontains(Y)
p3857
I00
sVcontains(F)
p3858
I00
sVcontains(D)
p3859
I00
sVcontains(J)
p3860
I00
sg3580
tp3861
a((dp3862
Vcontains(u)
p3863
I00
sVcontains(O)
p3864
I00
sVcontains(M)
p3865
I00
sVcontains(S)
p3866
I00
sVcontains(Q)
p3867
I00
sVcontains(d)
p3868
I00
sVcontains(W)
p3869
I00
sVcontains(C)
p3870
I00
sVcontains(A)
p3871
I01
sVcontains(o)
p3872
I00
sVcontains(T)
p3873
I00
sVcontains(Z)
p3874
I00
sVcontains(G)
p3875
I00
sVcontains(E)
p3876
I01
sVcontains(s)
p3877
I00
sVcontains(K)
p3878
I01
sVcontains(I)
p3879
I00
sVcontains(c)
p3880
I00
sVcontains(H)
p3881
I00
sVcontains(N)
p3882
I00
sVcontains(g)
p3883
I00
sVcontains(L)
p3884
I00
sVcontains(e)
p3885
I00
sVcontains(R)
p3886
I01
sVcontains(P)
p3887
I00
sVcontains(V)
p3888
I00
sVcontains(U)
p3889
I00
sVcontains(B)
p3890
I00
sVcontains(h)
p3891
I00
sVcontains(Y)
p3892
I00
sVcontains(F)
p3893
I00
sVcontains(D)
p3894
I00
sVcontains(J)
p3895
I00
sg3580
tp3896
a((dp3897
Vcontains(u)
p3898
I00
sVcontains(O)
p3899
I00
sVcontains(M)
p3900
I00
sVcontains(S)
p3901
I00
sVcontains(Q)
p3902
I00
sVcontains(d)
p3903
I00
sVcontains(W)
p3904
I00
sVcontains(C)
p3905
I00
sVcontains(A)
p3906
I01
sVcontains(o)
p3907
I00
sVcontains(T)
p3908
I00
sVcontains(Z)
p3909
I00
sVcontains(G)
p3910
I00
sVcontains(E)
p3911
I00
sVcontains(s)
p3912
I00
sVcontains(K)
p3913
I00
sVcontains(I)
p3914
I00
sVcontains(c)
p3915
I00
sVcontains(H)
p3916
I00
sVcontains(N)
p3917
I01
sVcontains(g)
p3918
I00
sVcontains(L)
p3919
I01
sVcontains(e)
p3920
I00
sVcontains(R)
p3921
I00
sVcontains(P)
p3922
I00
sVcontains(V)
p3923
I00
sVcontains(U)
p3924
I00
sVcontains(B)
p3925
I00
sVcontains(h)
p3926
I00
sVcontains(Y)
p3927
I00
sVcontains(F)
p3928
I00
sVcontains(D)
p3929
I01
sVcontains(J)
p3930
I00
sg3580
tp3931
a((dp3932
Vcontains(u)
p3933
I00
sVcontains(O)
p3934
I00
sVcontains(M)
p3935
I00
sVcontains(S)
p3936
I01
sVcontains(Q)
p3937
I00
sVcontains(d)
p3938
I00
sVcontains(W)
p3939
I00
sVcontains(C)
p3940
I00
sVcontains(A)
p3941
I01
sVcontains(o)
p3942
I00
sVcontains(T)
p3943
I00
sVcontains(Z)
p3944
I00
sVcontains(G)
p3945
I00
sVcontains(E)
p3946
I01
sVcontains(s)
p3947
I00
sVcontains(K)
p3948
I00
sVcontains(I)
p3949
I00
sVcontains(c)
p3950
I00
sVcontains(H)
p3951
I00
sVcontains(N)
p3952
I00
sVcontains(g)
p3953
I00
sVcontains(L)
p3954
I01
sVcontains(e)
p3955
I00
sVcontains(R)
p3956
I01
sVcontains(P)
p3957
I00
sVcontains(V)
p3958
I00
sVcontains(U)
p3959
I00
sVcontains(B)
p3960
I01
sVcontains(h)
p3961
I00
sVcontains(Y)
p3962
I00
sVcontains(F)
p3963
I00
sVcontains(D)
p3964
I00
sVcontains(J)
p3965
I00
sg3580
tp3966
a((dp3967
Vcontains(u)
p3968
I00
sVcontains(O)
p3969
I00
sVcontains(M)
p3970
I00
sVcontains(S)
p3971
I00
sVcontains(Q)
p3972
I00
sVcontains(d)
p3973
I00
sVcontains(W)
p3974
I00
sVcontains(C)
p3975
I00
sVcontains(A)
p3976
I01
sVcontains(o)
p3977
I00
sVcontains(T)
p3978
I00
sVcontains(Z)
p3979
I00
sVcontains(G)
p3980
I00
sVcontains(E)
p3981
I01
sVcontains(s)
p3982
I00
sVcontains(K)
p3983
I01
sVcontains(I)
p3984
I01
sVcontains(c)
p3985
I00
sVcontains(H)
p3986
I00
sVcontains(N)
p3987
I01
sVcontains(g)
p3988
I00
sVcontains(L)
p3989
I01
sVcontains(e)
p3990
I00
sVcontains(R)
p3991
I01
sVcontains(P)
p3992
I00
sVcontains(V)
p3993
I00
sVcontains(U)
p3994
I00
sVcontains(B)
p3995
I00
sVcontains(h)
p3996
I00
sVcontains(Y)
p3997
I00
sVcontains(F)
p3998
I00
sVcontains(D)
p3999
I01
sVcontains(J)
p4000
I00
sg3580
tp4001
a((dp4002
Vcontains(u)
p4003
I00
sVcontains(O)
p4004
I00
sVcontains(M)
p4005
I00
sVcontains(S)
p4006
I01
sVcontains(Q)
p4007
I00
sVcontains(d)
p4008
I00
sVcontains(W)
p4009
I00
sVcontains(C)
p4010
I00
sVcontains(A)
p4011
I01
sVcontains(o)
p4012
I00
sVcontains(T)
p4013
I00
sVcontains(Z)
p4014
I00
sVcontains(G)
p4015
I00
sVcontains(E)
p4016
I00
sVcontains(s)
p4017
I00
sVcontains(K)
p4018
I00
sVcontains(I)
p4019
I00
sVcontains(c)
p4020
I00
sVcontains(H)
p4021
I00
sVcontains(N)
p4022
I00
sVcontains(g)
p4023
I00
sVcontains(L)
p4024
I01
sVcontains(e)
p4025
I00
sVcontains(R)
p4026
I00
sVcontains(P)
p4027
I00
sVcontains(V)
p4028
I00
sVcontains(U)
p4029
I00
sVcontains(B)
p4030
I00
sVcontains(h)
p4031
I00
sVcontains(Y)
p4032
I00
sVcontains(F)
p4033
I01
sVcontains(D)
p4034
I00
sVcontains(J)
p4035
I00
sg3580
tp4036
a((dp4037
Vcontains(u)
p4038
I00
sVcontains(O)
p4039
I00
sVcontains(M)
p4040
I00
sVcontains(S)
p4041
I00
sVcontains(Q)
p4042
I00
sVcontains(d)
p4043
I00
sVcontains(W)
p4044
I00
sVcontains(C)
p4045
I00
sVcontains(A)
p4046
I01
sVcontains(o)
p4047
I00
sVcontains(T)
p4048
I00
sVcontains(Z)
p4049
I00
sVcontains(G)
p4050
I01
sVcontains(E)
p4051
I00
sVcontains(s)
p4052
I00
sVcontains(K)
p4053
I00
sVcontains(I)
p4054
I00
sVcontains(c)
p4055
I00
sVcontains(H)
p4056
I00
sVcontains(N)
p4057
I00
sVcontains(g)
p4058
I00
sVcontains(L)
p4059
I01
sVcontains(e)
p4060
I00
sVcontains(R)
p4061
I01
sVcontains(P)
p4062
I00
sVcontains(V)
p4063
I00
sVcontains(U)
p4064
I00
sVcontains(B)
p4065
I00
sVcontains(h)
p4066
I00
sVcontains(Y)
p4067
I00
sVcontains(F)
p4068
I00
sVcontains(D)
p4069
I01
sVcontains(J)
p4070
I00
sg3580
tp4071
a((dp4072
Vcontains(u)
p4073
I00
sVcontains(O)
p4074
I01
sVcontains(M)
p4075
I00
sVcontains(S)
p4076
I00
sVcontains(Q)
p4077
I00
sVcontains(d)
p4078
I00
sVcontains(W)
p4079
I00
sVcontains(C)
p4080
I00
sVcontains(A)
p4081
I01
sVcontains(o)
p4082
I00
sVcontains(T)
p4083
I01
sVcontains(Z)
p4084
I00
sVcontains(G)
p4085
I00
sVcontains(E)
p4086
I00
sVcontains(s)
p4087
I00
sVcontains(K)
p4088
I00
sVcontains(I)
p4089
I00
sVcontains(c)
p4090
I00
sVcontains(H)
p4091
I00
sVcontains(N)
p4092
I00
sVcontains(g)
p4093
I00
sVcontains(L)
p4094
I01
sVcontains(e)
p4095
I00
sVcontains(R)
p4096
I00
sVcontains(P)
p4097
I00
sVcontains(V)
p4098
I00
sVcontains(U)
p4099
I00
sVcontains(B)
p4100
I00
sVcontains(h)
p4101
I00
sVcontains(Y)
p4102
I00
sVcontains(F)
p4103
I00
sVcontains(D)
p4104
I00
sVcontains(J)
p4105
I00
sg3580
tp4106
a((dp4107
Vcontains(u)
p4108
I00
sVcontains(O)
p4109
I00
sVcontains(M)
p4110
I00
sVcontains(S)
p4111
I00
sVcontains(Q)
p4112
I00
sVcontains(d)
p4113
I00
sVcontains(W)
p4114
I00
sVcontains(C)
p4115
I00
sVcontains(A)
p4116
I01
sVcontains(o)
p4117
I00
sVcontains(T)
p4118
I00
sVcontains(Z)
p4119
I00
sVcontains(G)
p4120
I00
sVcontains(E)
p4121
I00
sVcontains(s)
p4122
I00
sVcontains(K)
p4123
I00
sVcontains(I)
p4124
I00
sVcontains(c)
p4125
I00
sVcontains(H)
p4126
I00
sVcontains(N)
p4127
I01
sVcontains(g)
p4128
I00
sVcontains(L)
p4129
I01
sVcontains(e)
p4130
I00
sVcontains(R)
p4131
I00
sVcontains(P)
p4132
I00
sVcontains(V)
p4133
I00
sVcontains(U)
p4134
I01
sVcontains(B)
p4135
I00
sVcontains(h)
p4136
I00
sVcontains(Y)
p4137
I00
sVcontains(F)
p4138
I00
sVcontains(D)
p4139
I01
sVcontains(J)
p4140
I00
sg3580
tp4141
a((dp4142
Vcontains(u)
p4143
I00
sVcontains(O)
p4144
I01
sVcontains(M)
p4145
I01
sVcontains(S)
p4146
I00
sVcontains(Q)
p4147
I00
sVcontains(d)
p4148
I00
sVcontains(W)
p4149
I00
sVcontains(C)
p4150
I00
sVcontains(A)
p4151
I01
sVcontains(o)
p4152
I00
sVcontains(T)
p4153
I01
sVcontains(Z)
p4154
I00
sVcontains(G)
p4155
I00
sVcontains(E)
p4156
I00
sVcontains(s)
p4157
I00
sVcontains(K)
p4158
I00
sVcontains(I)
p4159
I00
sVcontains(c)
p4160
I00
sVcontains(H)
p4161
I00
sVcontains(N)
p4162
I00
sVcontains(g)
p4163
I00
sVcontains(L)
p4164
I00
sVcontains(e)
p4165
I00
sVcontains(R)
p4166
I00
sVcontains(P)
p4167
I00
sVcontains(V)
p4168
I00
sVcontains(U)
p4169
I00
sVcontains(B)
p4170
I00
sVcontains(h)
p4171
I00
sVcontains(Y)
p4172
I00
sVcontains(F)
p4173
I00
sVcontains(D)
p4174
I01
sVcontains(J)
p4175
I00
sg3580
tp4176
a((dp4177
Vcontains(u)
p4178
I00
sVcontains(O)
p4179
I01
sVcontains(M)
p4180
I01
sVcontains(S)
p4181
I00
sVcontains(Q)
p4182
I00
sVcontains(d)
p4183
I00
sVcontains(W)
p4184
I00
sVcontains(C)
p4185
I00
sVcontains(A)
p4186
I01
sVcontains(o)
p4187
I00
sVcontains(T)
p4188
I00
sVcontains(Z)
p4189
I00
sVcontains(G)
p4190
I00
sVcontains(E)
p4191
I00
sVcontains(s)
p4192
I00
sVcontains(K)
p4193
I00
sVcontains(I)
p4194
I00
sVcontains(c)
p4195
I00
sVcontains(H)
p4196
I00
sVcontains(N)
p4197
I00
sVcontains(g)
p4198
I00
sVcontains(L)
p4199
I01
sVcontains(e)
p4200
I00
sVcontains(R)
p4201
I00
sVcontains(P)
p4202
I00
sVcontains(V)
p4203
I00
sVcontains(U)
p4204
I00
sVcontains(B)
p4205
I00
sVcontains(h)
p4206
I00
sVcontains(Y)
p4207
I00
sVcontains(F)
p4208
I00
sVcontains(D)
p4209
I01
sVcontains(J)
p4210
I00
sg3580
tp4211
a((dp4212
Vcontains(u)
p4213
I00
sVcontains(O)
p4214
I01
sVcontains(M)
p4215
I01
sVcontains(S)
p4216
I00
sVcontains(Q)
p4217
I00
sVcontains(d)
p4218
I00
sVcontains(W)
p4219
I00
sVcontains(C)
p4220
I00
sVcontains(A)
p4221
I01
sVcontains(o)
p4222
I00
sVcontains(T)
p4223
I01
sVcontains(Z)
p4224
I00
sVcontains(G)
p4225
I00
sVcontains(E)
p4226
I00
sVcontains(s)
p4227
I00
sVcontains(K)
p4228
I00
sVcontains(I)
p4229
I00
sVcontains(c)
p4230
I00
sVcontains(H)
p4231
I00
sVcontains(N)
p4232
I00
sVcontains(g)
p4233
I00
sVcontains(L)
p4234
I00
sVcontains(e)
p4235
I00
sVcontains(R)
p4236
I00
sVcontains(P)
p4237
I00
sVcontains(V)
p4238
I00
sVcontains(U)
p4239
I00
sVcontains(B)
p4240
I00
sVcontains(h)
p4241
I00
sVcontains(Y)
p4242
I00
sVcontains(F)
p4243
I00
sVcontains(D)
p4244
I00
sVcontains(J)
p4245
I00
sg3580
tp4246
a((dp4247
Vcontains(u)
p4248
I00
sVcontains(O)
p4249
I01
sVcontains(M)
p4250
I01
sVcontains(S)
p4251
I00
sVcontains(Q)
p4252
I00
sVcontains(d)
p4253
I00
sVcontains(W)
p4254
I00
sVcontains(C)
p4255
I00
sVcontains(A)
p4256
I01
sVcontains(o)
p4257
I00
sVcontains(T)
p4258
I01
sVcontains(Z)
p4259
I00
sVcontains(G)
p4260
I00
sVcontains(E)
p4261
I00
sVcontains(s)
p4262
I00
sVcontains(K)
p4263
I00
sVcontains(I)
p4264
I00
sVcontains(c)
p4265
I00
sVcontains(H)
p4266
I01
sVcontains(N)
p4267
I00
sVcontains(g)
p4268
I00
sVcontains(L)
p4269
I00
sVcontains(e)
p4270
I00
sVcontains(R)
p4271
I00
sVcontains(P)
p4272
I00
sVcontains(V)
p4273
I00
sVcontains(U)
p4274
I00
sVcontains(B)
p4275
I00
sVcontains(h)
p4276
I00
sVcontains(Y)
p4277
I00
sVcontains(F)
p4278
I00
sVcontains(D)
p4279
I00
sVcontains(J)
p4280
I00
sg3580
tp4281
a((dp4282
Vcontains(u)
p4283
I00
sVcontains(O)
p4284
I00
sVcontains(M)
p4285
I00
sVcontains(S)
p4286
I00
sVcontains(Q)
p4287
I00
sVcontains(d)
p4288
I00
sVcontains(W)
p4289
I00
sVcontains(C)
p4290
I00
sVcontains(A)
p4291
I01
sVcontains(o)
p4292
I00
sVcontains(T)
p4293
I00
sVcontains(Z)
p4294
I00
sVcontains(G)
p4295
I00
sVcontains(E)
p4296
I01
sVcontains(s)
p4297
I00
sVcontains(K)
p4298
I00
sVcontains(I)
p4299
I00
sVcontains(c)
p4300
I00
sVcontains(H)
p4301
I00
sVcontains(N)
p4302
I01
sVcontains(g)
p4303
I00
sVcontains(L)
p4304
I00
sVcontains(e)
p4305
I00
sVcontains(R)
p4306
I01
sVcontains(P)
p4307
I00
sVcontains(V)
p4308
I00
sVcontains(U)
p4309
I01
sVcontains(B)
p4310
I00
sVcontains(h)
p4311
I00
sVcontains(Y)
p4312
I00
sVcontains(F)
p4313
I00
sVcontains(D)
p4314
I01
sVcontains(J)
p4315
I00
sg3580
tp4316
a((dp4317
Vcontains(u)
p4318
I00
sVcontains(O)
p4319
I01
sVcontains(M)
p4320
I00
sVcontains(S)
p4321
I01
sVcontains(Q)
p4322
I00
sVcontains(d)
p4323
I00
sVcontains(W)
p4324
I00
sVcontains(C)
p4325
I00
sVcontains(A)
p4326
I01
sVcontains(o)
p4327
I00
sVcontains(T)
p4328
I00
sVcontains(Z)
p4329
I00
sVcontains(G)
p4330
I00
sVcontains(E)
p4331
I01
sVcontains(s)
p4332
I00
sVcontains(K)
p4333
I00
sVcontains(I)
p4334
I00
sVcontains(c)
p4335
I00
sVcontains(H)
p4336
I00
sVcontains(N)
p4337
I01
sVcontains(g)
p4338
I00
sVcontains(L)
p4339
I00
sVcontains(e)
p4340
I00
sVcontains(R)
p4341
I00
sVcontains(P)
p4342
I00
sVcontains(V)
p4343
I00
sVcontains(U)
p4344
I00
sVcontains(B)
p4345
I00
sVcontains(h)
p4346
I00
sVcontains(Y)
p4347
I00
sVcontains(F)
p4348
I00
sVcontains(D)
p4349
I00
sVcontains(J)
p4350
I00
sg3580
tp4351
a((dp4352
Vcontains(u)
p4353
I00
sVcontains(O)
p4354
I00
sVcontains(M)
p4355
I00
sVcontains(S)
p4356
I00
sVcontains(Q)
p4357
I00
sVcontains(d)
p4358
I00
sVcontains(W)
p4359
I00
sVcontains(C)
p4360
I00
sVcontains(A)
p4361
I01
sVcontains(o)
p4362
I00
sVcontains(T)
p4363
I00
sVcontains(Z)
p4364
I00
sVcontains(G)
p4365
I00
sVcontains(E)
p4366
I01
sVcontains(s)
p4367
I00
sVcontains(K)
p4368
I00
sVcontains(I)
p4369
I00
sVcontains(c)
p4370
I00
sVcontains(H)
p4371
I00
sVcontains(N)
p4372
I01
sVcontains(g)
p4373
I00
sVcontains(L)
p4374
I00
sVcontains(e)
p4375
I00
sVcontains(R)
p4376
I01
sVcontains(P)
p4377
I00
sVcontains(V)
p4378
I00
sVcontains(U)
p4379
I01
sVcontains(B)
p4380
I00
sVcontains(h)
p4381
I00
sVcontains(Y)
p4382
I00
sVcontains(F)
p4383
I00
sVcontains(D)
p4384
I01
sVcontains(J)
p4385
I00
sg3580
tp4386
a((dp4387
Vcontains(u)
p4388
I00
sVcontains(O)
p4389
I00
sVcontains(M)
p4390
I00
sVcontains(S)
p4391
I01
sVcontains(Q)
p4392
I00
sVcontains(d)
p4393
I00
sVcontains(W)
p4394
I00
sVcontains(C)
p4395
I00
sVcontains(A)
p4396
I01
sVcontains(o)
p4397
I00
sVcontains(T)
p4398
I01
sVcontains(Z)
p4399
I00
sVcontains(G)
p4400
I00
sVcontains(E)
p4401
I01
sVcontains(s)
p4402
I00
sVcontains(K)
p4403
I00
sVcontains(I)
p4404
I00
sVcontains(c)
p4405
I00
sVcontains(H)
p4406
I00
sVcontains(N)
p4407
I01
sVcontains(g)
p4408
I00
sVcontains(L)
p4409
I00
sVcontains(e)
p4410
I00
sVcontains(R)
p4411
I00
sVcontains(P)
p4412
I00
sVcontains(V)
p4413
I00
sVcontains(U)
p4414
I00
sVcontains(B)
p4415
I00
sVcontains(h)
p4416
I00
sVcontains(Y)
p4417
I00
sVcontains(F)
p4418
I00
sVcontains(D)
p4419
I01
sVcontains(J)
p4420
I00
sg3580
tp4421
a((dp4422
Vcontains(u)
p4423
I00
sVcontains(O)
p4424
I01
sVcontains(M)
p4425
I00
sVcontains(S)
p4426
I01
sVcontains(Q)
p4427
I00
sVcontains(d)
p4428
I00
sVcontains(W)
p4429
I00
sVcontains(C)
p4430
I00
sVcontains(A)
p4431
I01
sVcontains(o)
p4432
I00
sVcontains(T)
p4433
I00
sVcontains(Z)
p4434
I00
sVcontains(G)
p4435
I00
sVcontains(E)
p4436
I01
sVcontains(s)
p4437
I00
sVcontains(K)
p4438
I00
sVcontains(I)
p4439
I00
sVcontains(c)
p4440
I00
sVcontains(H)
p4441
I00
sVcontains(N)
p4442
I01
sVcontains(g)
p4443
I00
sVcontains(L)
p4444
I00
sVcontains(e)
p4445
I00
sVcontains(R)
p4446
I00
sVcontains(P)
p4447
I00
sVcontains(V)
p4448
I00
sVcontains(U)
p4449
I00
sVcontains(B)
p4450
I00
sVcontains(h)
p4451
I00
sVcontains(Y)
p4452
I00
sVcontains(F)
p4453
I00
sVcontains(D)
p4454
I00
sVcontains(J)
p4455
I00
sg3580
tp4456
a((dp4457
Vcontains(u)
p4458
I00
sVcontains(O)
p4459
I00
sVcontains(M)
p4460
I00
sVcontains(S)
p4461
I00
sVcontains(Q)
p4462
I00
sVcontains(d)
p4463
I00
sVcontains(W)
p4464
I00
sVcontains(C)
p4465
I00
sVcontains(A)
p4466
I01
sVcontains(o)
p4467
I00
sVcontains(T)
p4468
I01
sVcontains(Z)
p4469
I00
sVcontains(G)
p4470
I00
sVcontains(E)
p4471
I00
sVcontains(s)
p4472
I00
sVcontains(K)
p4473
I00
sVcontains(I)
p4474
I00
sVcontains(c)
p4475
I00
sVcontains(H)
p4476
I00
sVcontains(N)
p4477
I01
sVcontains(g)
p4478
I00
sVcontains(L)
p4479
I00
sVcontains(e)
p4480
I00
sVcontains(R)
p4481
I01
sVcontains(P)
p4482
I00
sVcontains(V)
p4483
I00
sVcontains(U)
p4484
I00
sVcontains(B)
p4485
I00
sVcontains(h)
p4486
I00
sVcontains(Y)
p4487
I00
sVcontains(F)
p4488
I00
sVcontains(D)
p4489
I00
sVcontains(J)
p4490
I00
sg3580
tp4491
a((dp4492
Vcontains(u)
p4493
I00
sVcontains(O)
p4494
I00
sVcontains(M)
p4495
I00
sVcontains(S)
p4496
I00
sVcontains(Q)
p4497
I00
sVcontains(d)
p4498
I00
sVcontains(W)
p4499
I00
sVcontains(C)
p4500
I00
sVcontains(A)
p4501
I01
sVcontains(o)
p4502
I00
sVcontains(T)
p4503
I00
sVcontains(Z)
p4504
I00
sVcontains(G)
p4505
I00
sVcontains(E)
p4506
I00
sVcontains(s)
p4507
I00
sVcontains(K)
p4508
I00
sVcontains(I)
p4509
I00
sVcontains(c)
p4510
I00
sVcontains(H)
p4511
I00
sVcontains(N)
p4512
I00
sVcontains(g)
p4513
I00
sVcontains(L)
p4514
I01
sVcontains(e)
p4515
I00
sVcontains(R)
p4516
I01
sVcontains(P)
p4517
I00
sVcontains(V)
p4518
I00
sVcontains(U)
p4519
I00
sVcontains(B)
p4520
I00
sVcontains(h)
p4521
I00
sVcontains(Y)
p4522
I00
sVcontains(F)
p4523
I00
sVcontains(D)
p4524
I01
sVcontains(J)
p4525
I00
sg3580
tp4526
a((dp4527
Vcontains(u)
p4528
I00
sVcontains(O)
p4529
I00
sVcontains(M)
p4530
I01
sVcontains(S)
p4531
I00
sVcontains(Q)
p4532
I00
sVcontains(d)
p4533
I00
sVcontains(W)
p4534
I00
sVcontains(C)
p4535
I00
sVcontains(A)
p4536
I01
sVcontains(o)
p4537
I00
sVcontains(T)
p4538
I00
sVcontains(Z)
p4539
I00
sVcontains(G)
p4540
I00
sVcontains(E)
p4541
I01
sVcontains(s)
p4542
I00
sVcontains(K)
p4543
I00
sVcontains(I)
p4544
I00
sVcontains(c)
p4545
I00
sVcontains(H)
p4546
I00
sVcontains(N)
p4547
I00
sVcontains(g)
p4548
I00
sVcontains(L)
p4549
I00
sVcontains(e)
p4550
I00
sVcontains(R)
p4551
I01
sVcontains(P)
p4552
I00
sVcontains(V)
p4553
I00
sVcontains(U)
p4554
I00
sVcontains(B)
p4555
I00
sVcontains(h)
p4556
I00
sVcontains(Y)
p4557
I00
sVcontains(F)
p4558
I00
sVcontains(D)
p4559
I01
sVcontains(J)
p4560
I00
sg3580
tp4561
a((dp4562
Vcontains(u)
p4563
I00
sVcontains(O)
p4564
I00
sVcontains(M)
p4565
I01
sVcontains(S)
p4566
I01
sVcontains(Q)
p4567
I00
sVcontains(d)
p4568
I00
sVcontains(W)
p4569
I00
sVcontains(C)
p4570
I00
sVcontains(A)
p4571
I01
sVcontains(o)
p4572
I00
sVcontains(T)
p4573
I00
sVcontains(Z)
p4574
I00
sVcontains(G)
p4575
I00
sVcontains(E)
p4576
I00
sVcontains(s)
p4577
I00
sVcontains(K)
p4578
I00
sVcontains(I)
p4579
I00
sVcontains(c)
p4580
I00
sVcontains(H)
p4581
I00
sVcontains(N)
p4582
I00
sVcontains(g)
p4583
I00
sVcontains(L)
p4584
I00
sVcontains(e)
p4585
I00
sVcontains(R)
p4586
I01
sVcontains(P)
p4587
I00
sVcontains(V)
p4588
I00
sVcontains(U)
p4589
I00
sVcontains(B)
p4590
I00
sVcontains(h)
p4591
I00
sVcontains(Y)
p4592
I00
sVcontains(F)
p4593
I00
sVcontains(D)
p4594
I01
sVcontains(J)
p4595
I00
sg3580
tp4596
a((dp4597
Vcontains(u)
p4598
I00
sVcontains(O)
p4599
I00
sVcontains(M)
p4600
I00
sVcontains(S)
p4601
I01
sVcontains(Q)
p4602
I00
sVcontains(d)
p4603
I00
sVcontains(W)
p4604
I00
sVcontains(C)
p4605
I00
sVcontains(A)
p4606
I01
sVcontains(o)
p4607
I00
sVcontains(T)
p4608
I01
sVcontains(Z)
p4609
I00
sVcontains(G)
p4610
I00
sVcontains(E)
p4611
I01
sVcontains(s)
p4612
I00
sVcontains(K)
p4613
I00
sVcontains(I)
p4614
I00
sVcontains(c)
p4615
I00
sVcontains(H)
p4616
I00
sVcontains(N)
p4617
I00
sVcontains(g)
p4618
I00
sVcontains(L)
p4619
I00
sVcontains(e)
p4620
I00
sVcontains(R)
p4621
I01
sVcontains(P)
p4622
I00
sVcontains(V)
p4623
I00
sVcontains(U)
p4624
I00
sVcontains(B)
p4625
I00
sVcontains(h)
p4626
I00
sVcontains(Y)
p4627
I00
sVcontains(F)
p4628
I00
sVcontains(D)
p4629
I01
sVcontains(J)
p4630
I00
sg3580
tp4631
a((dp4632
Vcontains(u)
p4633
I00
sVcontains(O)
p4634
I00
sVcontains(M)
p4635
I00
sVcontains(S)
p4636
I01
sVcontains(Q)
p4637
I00
sVcontains(d)
p4638
I00
sVcontains(W)
p4639
I00
sVcontains(C)
p4640
I00
sVcontains(A)
p4641
I01
sVcontains(o)
p4642
I00
sVcontains(T)
p4643
I00
sVcontains(Z)
p4644
I00
sVcontains(G)
p4645
I00
sVcontains(E)
p4646
I00
sVcontains(s)
p4647
I00
sVcontains(K)
p4648
I00
sVcontains(I)
p4649
I00
sVcontains(c)
p4650
I00
sVcontains(H)
p4651
I01
sVcontains(N)
p4652
I00
sVcontains(g)
p4653
I00
sVcontains(L)
p4654
I00
sVcontains(e)
p4655
I00
sVcontains(R)
p4656
I01
sVcontains(P)
p4657
I00
sVcontains(V)
p4658
I00
sVcontains(U)
p4659
I01
sVcontains(B)
p4660
I00
sVcontains(h)
p4661
I00
sVcontains(Y)
p4662
I00
sVcontains(F)
p4663
I00
sVcontains(D)
p4664
I00
sVcontains(J)
p4665
I00
sg3580
tp4666
a((dp4667
Vcontains(u)
p4668
I00
sVcontains(O)
p4669
I01
sVcontains(M)
p4670
I00
sVcontains(S)
p4671
I00
sVcontains(Q)
p4672
I00
sVcontains(d)
p4673
I00
sVcontains(W)
p4674
I00
sVcontains(C)
p4675
I00
sVcontains(A)
p4676
I01
sVcontains(o)
p4677
I00
sVcontains(T)
p4678
I00
sVcontains(Z)
p4679
I00
sVcontains(G)
p4680
I00
sVcontains(E)
p4681
I00
sVcontains(s)
p4682
I00
sVcontains(K)
p4683
I00
sVcontains(I)
p4684
I00
sVcontains(c)
p4685
I00
sVcontains(H)
p4686
I00
sVcontains(N)
p4687
I01
sVcontains(g)
p4688
I00
sVcontains(L)
p4689
I00
sVcontains(e)
p4690
I00
sVcontains(R)
p4691
I01
sVcontains(P)
p4692
I00
sVcontains(V)
p4693
I00
sVcontains(U)
p4694
I00
sVcontains(B)
p4695
I00
sVcontains(h)
p4696
I00
sVcontains(Y)
p4697
I00
sVcontains(F)
p4698
I00
sVcontains(D)
p4699
I00
sVcontains(J)
p4700
I00
sg3580
tp4701
a((dp4702
Vcontains(u)
p4703
I00
sVcontains(O)
p4704
I01
sVcontains(M)
p4705
I00
sVcontains(S)
p4706
I01
sVcontains(Q)
p4707
I00
sVcontains(d)
p4708
I00
sVcontains(W)
p4709
I00
sVcontains(C)
p4710
I00
sVcontains(A)
p4711
I01
sVcontains(o)
p4712
I00
sVcontains(T)
p4713
I00
sVcontains(Z)
p4714
I00
sVcontains(G)
p4715
I00
sVcontains(E)
p4716
I00
sVcontains(s)
p4717
I00
sVcontains(K)
p4718
I00
sVcontains(I)
p4719
I00
sVcontains(c)
p4720
I00
sVcontains(H)
p4721
I00
sVcontains(N)
p4722
I01
sVcontains(g)
p4723
I00
sVcontains(L)
p4724
I00
sVcontains(e)
p4725
I00
sVcontains(R)
p4726
I01
sVcontains(P)
p4727
I00
sVcontains(V)
p4728
I00
sVcontains(U)
p4729
I00
sVcontains(B)
p4730
I00
sVcontains(h)
p4731
I00
sVcontains(Y)
p4732
I00
sVcontains(F)
p4733
I00
sVcontains(D)
p4734
I00
sVcontains(J)
p4735
I00
sg3580
tp4736
a((dp4737
Vcontains(u)
p4738
I00
sVcontains(O)
p4739
I01
sVcontains(M)
p4740
I00
sVcontains(S)
p4741
I01
sVcontains(Q)
p4742
I00
sVcontains(d)
p4743
I00
sVcontains(W)
p4744
I00
sVcontains(C)
p4745
I00
sVcontains(A)
p4746
I01
sVcontains(o)
p4747
I00
sVcontains(T)
p4748
I00
sVcontains(Z)
p4749
I00
sVcontains(G)
p4750
I00
sVcontains(E)
p4751
I00
sVcontains(s)
p4752
I00
sVcontains(K)
p4753
I00
sVcontains(I)
p4754
I00
sVcontains(c)
p4755
I00
sVcontains(H)
p4756
I00
sVcontains(N)
p4757
I01
sVcontains(g)
p4758
I00
sVcontains(L)
p4759
I00
sVcontains(e)
p4760
I00
sVcontains(R)
p4761
I01
sVcontains(P)
p4762
I00
sVcontains(V)
p4763
I00
sVcontains(U)
p4764
I00
sVcontains(B)
p4765
I00
sVcontains(h)
p4766
I00
sVcontains(Y)
p4767
I00
sVcontains(F)
p4768
I00
sVcontains(D)
p4769
I00
sVcontains(J)
p4770
I00
sg3580
tp4771
a((dp4772
Vcontains(u)
p4773
I00
sVcontains(O)
p4774
I00
sVcontains(M)
p4775
I00
sVcontains(S)
p4776
I01
sVcontains(Q)
p4777
I00
sVcontains(d)
p4778
I00
sVcontains(W)
p4779
I00
sVcontains(C)
p4780
I00
sVcontains(A)
p4781
I01
sVcontains(o)
p4782
I00
sVcontains(T)
p4783
I00
sVcontains(Z)
p4784
I00
sVcontains(G)
p4785
I00
sVcontains(E)
p4786
I00
sVcontains(s)
p4787
I00
sVcontains(K)
p4788
I00
sVcontains(I)
p4789
I01
sVcontains(c)
p4790
I00
sVcontains(H)
p4791
I00
sVcontains(N)
p4792
I00
sVcontains(g)
p4793
I00
sVcontains(L)
p4794
I00
sVcontains(e)
p4795
I00
sVcontains(R)
p4796
I01
sVcontains(P)
p4797
I00
sVcontains(V)
p4798
I00
sVcontains(U)
p4799
I00
sVcontains(B)
p4800
I00
sVcontains(h)
p4801
I00
sVcontains(Y)
p4802
I00
sVcontains(F)
p4803
I00
sVcontains(D)
p4804
I00
sVcontains(J)
p4805
I00
sg3580
tp4806
a((dp4807
Vcontains(u)
p4808
I00
sVcontains(O)
p4809
I00
sVcontains(M)
p4810
I00
sVcontains(S)
p4811
I01
sVcontains(Q)
p4812
I00
sVcontains(d)
p4813
I00
sVcontains(W)
p4814
I00
sVcontains(C)
p4815
I00
sVcontains(A)
p4816
I01
sVcontains(o)
p4817
I00
sVcontains(T)
p4818
I01
sVcontains(Z)
p4819
I00
sVcontains(G)
p4820
I00
sVcontains(E)
p4821
I00
sVcontains(s)
p4822
I00
sVcontains(K)
p4823
I00
sVcontains(I)
p4824
I00
sVcontains(c)
p4825
I00
sVcontains(H)
p4826
I00
sVcontains(N)
p4827
I00
sVcontains(g)
p4828
I00
sVcontains(L)
p4829
I00
sVcontains(e)
p4830
I00
sVcontains(R)
p4831
I01
sVcontains(P)
p4832
I00
sVcontains(V)
p4833
I00
sVcontains(U)
p4834
I00
sVcontains(B)
p4835
I00
sVcontains(h)
p4836
I00
sVcontains(Y)
p4837
I00
sVcontains(F)
p4838
I00
sVcontains(D)
p4839
I01
sVcontains(J)
p4840
I00
sg3580
tp4841
a((dp4842
Vcontains(u)
p4843
I00
sVcontains(O)
p4844
I01
sVcontains(M)
p4845
I00
sVcontains(S)
p4846
I01
sVcontains(Q)
p4847
I00
sVcontains(d)
p4848
I00
sVcontains(W)
p4849
I00
sVcontains(C)
p4850
I00
sVcontains(A)
p4851
I01
sVcontains(o)
p4852
I00
sVcontains(T)
p4853
I00
sVcontains(Z)
p4854
I00
sVcontains(G)
p4855
I00
sVcontains(E)
p4856
I00
sVcontains(s)
p4857
I00
sVcontains(K)
p4858
I00
sVcontains(I)
p4859
I00
sVcontains(c)
p4860
I00
sVcontains(H)
p4861
I00
sVcontains(N)
p4862
I00
sVcontains(g)
p4863
I00
sVcontains(L)
p4864
I01
sVcontains(e)
p4865
I00
sVcontains(R)
p4866
I01
sVcontains(P)
p4867
I00
sVcontains(V)
p4868
I01
sVcontains(U)
p4869
I00
sVcontains(B)
p4870
I00
sVcontains(h)
p4871
I00
sVcontains(Y)
p4872
I00
sVcontains(F)
p4873
I00
sVcontains(D)
p4874
I01
sVcontains(J)
p4875
I00
sg3580
tp4876
a((dp4877
Vcontains(u)
p4878
I00
sVcontains(O)
p4879
I00
sVcontains(M)
p4880
I00
sVcontains(S)
p4881
I01
sVcontains(Q)
p4882
I00
sVcontains(d)
p4883
I00
sVcontains(W)
p4884
I00
sVcontains(C)
p4885
I00
sVcontains(A)
p4886
I01
sVcontains(o)
p4887
I00
sVcontains(T)
p4888
I01
sVcontains(Z)
p4889
I00
sVcontains(G)
p4890
I00
sVcontains(E)
p4891
I00
sVcontains(s)
p4892
I00
sVcontains(K)
p4893
I00
sVcontains(I)
p4894
I00
sVcontains(c)
p4895
I00
sVcontains(H)
p4896
I00
sVcontains(N)
p4897
I00
sVcontains(g)
p4898
I00
sVcontains(L)
p4899
I00
sVcontains(e)
p4900
I00
sVcontains(R)
p4901
I01
sVcontains(P)
p4902
I00
sVcontains(V)
p4903
I00
sVcontains(U)
p4904
I00
sVcontains(B)
p4905
I00
sVcontains(h)
p4906
I00
sVcontains(Y)
p4907
I00
sVcontains(F)
p4908
I00
sVcontains(D)
p4909
I00
sVcontains(J)
p4910
I00
sg3580
tp4911
a((dp4912
Vcontains(u)
p4913
I00
sVcontains(O)
p4914
I00
sVcontains(M)
p4915
I00
sVcontains(S)
p4916
I01
sVcontains(Q)
p4917
I00
sVcontains(d)
p4918
I00
sVcontains(W)
p4919
I00
sVcontains(C)
p4920
I00
sVcontains(A)
p4921
I01
sVcontains(o)
p4922
I00
sVcontains(T)
p4923
I00
sVcontains(Z)
p4924
I00
sVcontains(G)
p4925
I00
sVcontains(E)
p4926
I00
sVcontains(s)
p4927
I00
sVcontains(K)
p4928
I00
sVcontains(I)
p4929
I00
sVcontains(c)
p4930
I00
sVcontains(H)
p4931
I00
sVcontains(N)
p4932
I00
sVcontains(g)
p4933
I00
sVcontains(L)
p4934
I00
sVcontains(e)
p4935
I00
sVcontains(R)
p4936
I00
sVcontains(P)
p4937
I00
sVcontains(V)
p4938
I00
sVcontains(U)
p4939
I00
sVcontains(B)
p4940
I00
sVcontains(h)
p4941
I00
sVcontains(Y)
p4942
I00
sVcontains(F)
p4943
I00
sVcontains(D)
p4944
I00
sVcontains(J)
p4945
I00
sg3580
tp4946
a((dp4947
Vcontains(u)
p4948
I00
sVcontains(O)
p4949
I00
sVcontains(M)
p4950
I00
sVcontains(S)
p4951
I01
sVcontains(Q)
p4952
I00
sVcontains(d)
p4953
I00
sVcontains(W)
p4954
I00
sVcontains(C)
p4955
I00
sVcontains(A)
p4956
I01
sVcontains(o)
p4957
I00
sVcontains(T)
p4958
I00
sVcontains(Z)
p4959
I00
sVcontains(G)
p4960
I00
sVcontains(E)
p4961
I00
sVcontains(s)
p4962
I00
sVcontains(K)
p4963
I00
sVcontains(I)
p4964
I00
sVcontains(c)
p4965
I00
sVcontains(H)
p4966
I00
sVcontains(N)
p4967
I01
sVcontains(g)
p4968
I00
sVcontains(L)
p4969
I00
sVcontains(e)
p4970
I00
sVcontains(R)
p4971
I00
sVcontains(P)
p4972
I00
sVcontains(V)
p4973
I00
sVcontains(U)
p4974
I00
sVcontains(B)
p4975
I00
sVcontains(h)
p4976
I00
sVcontains(Y)
p4977
I00
sVcontains(F)
p4978
I00
sVcontains(D)
p4979
I01
sVcontains(J)
p4980
I00
sg3580
tp4981
a((dp4982
Vcontains(u)
p4983
I00
sVcontains(O)
p4984
I00
sVcontains(M)
p4985
I00
sVcontains(S)
p4986
I01
sVcontains(Q)
p4987
I00
sVcontains(d)
p4988
I00
sVcontains(W)
p4989
I00
sVcontains(C)
p4990
I00
sVcontains(A)
p4991
I01
sVcontains(o)
p4992
I00
sVcontains(T)
p4993
I00
sVcontains(Z)
p4994
I00
sVcontains(G)
p4995
I00
sVcontains(E)
p4996
I00
sVcontains(s)
p4997
I00
sVcontains(K)
p4998
I00
sVcontains(I)
p4999
I00
sVcontains(c)
p5000
I00
sVcontains(H)
p5001
I00
sVcontains(N)
p5002
I00
sVcontains(g)
p5003
I00
sVcontains(L)
p5004
I00
sVcontains(e)
p5005
I00
sVcontains(R)
p5006
I00
sVcontains(P)
p5007
I00
sVcontains(V)
p5008
I00
sVcontains(U)
p5009
I00
sVcontains(B)
p5010
I01
sVcontains(h)
p5011
I00
sVcontains(Y)
p5012
I01
sVcontains(F)
p5013
I00
sVcontains(D)
p5014
I00
sVcontains(J)
p5015
I00
sg3580
tp5016
a((dp5017
Vcontains(u)
p5018
I00
sVcontains(O)
p5019
I00
sVcontains(M)
p5020
I00
sVcontains(S)
p5021
I01
sVcontains(Q)
p5022
I00
sVcontains(d)
p5023
I00
sVcontains(W)
p5024
I00
sVcontains(C)
p5025
I00
sVcontains(A)
p5026
I01
sVcontains(o)
p5027
I00
sVcontains(T)
p5028
I00
sVcontains(Z)
p5029
I00
sVcontains(G)
p5030
I00
sVcontains(E)
p5031
I01
sVcontains(s)
p5032
I00
sVcontains(K)
p5033
I00
sVcontains(I)
p5034
I00
sVcontains(c)
p5035
I00
sVcontains(H)
p5036
I00
sVcontains(N)
p5037
I00
sVcontains(g)
p5038
I00
sVcontains(L)
p5039
I00
sVcontains(e)
p5040
I00
sVcontains(R)
p5041
I00
sVcontains(P)
p5042
I00
sVcontains(V)
p5043
I00
sVcontains(U)
p5044
I00
sVcontains(B)
p5045
I00
sVcontains(h)
p5046
I00
sVcontains(Y)
p5047
I00
sVcontains(F)
p5048
I00
sVcontains(D)
p5049
I00
sVcontains(J)
p5050
I00
sg3580
tp5051
a((dp5052
Vcontains(u)
p5053
I00
sVcontains(O)
p5054
I00
sVcontains(M)
p5055
I00
sVcontains(S)
p5056
I01
sVcontains(Q)
p5057
I00
sVcontains(d)
p5058
I00
sVcontains(W)
p5059
I00
sVcontains(C)
p5060
I00
sVcontains(A)
p5061
I01
sVcontains(o)
p5062
I00
sVcontains(T)
p5063
I00
sVcontains(Z)
p5064
I00
sVcontains(G)
p5065
I00
sVcontains(E)
p5066
I01
sVcontains(s)
p5067
I00
sVcontains(K)
p5068
I00
sVcontains(I)
p5069
I00
sVcontains(c)
p5070
I00
sVcontains(H)
p5071
I00
sVcontains(N)
p5072
I01
sVcontains(g)
p5073
I00
sVcontains(L)
p5074
I00
sVcontains(e)
p5075
I00
sVcontains(R)
p5076
I00
sVcontains(P)
p5077
I00
sVcontains(V)
p5078
I00
sVcontains(U)
p5079
I00
sVcontains(B)
p5080
I00
sVcontains(h)
p5081
I00
sVcontains(Y)
p5082
I00
sVcontains(F)
p5083
I00
sVcontains(D)
p5084
I00
sVcontains(J)
p5085
I00
sg3580
tp5086
a((dp5087
Vcontains(u)
p5088
I00
sVcontains(O)
p5089
I00
sVcontains(M)
p5090
I01
sVcontains(S)
p5091
I01
sVcontains(Q)
p5092
I00
sVcontains(d)
p5093
I00
sVcontains(W)
p5094
I00
sVcontains(C)
p5095
I00
sVcontains(A)
p5096
I01
sVcontains(o)
p5097
I00
sVcontains(T)
p5098
I00
sVcontains(Z)
p5099
I00
sVcontains(G)
p5100
I00
sVcontains(E)
p5101
I01
sVcontains(s)
p5102
I00
sVcontains(K)
p5103
I00
sVcontains(I)
p5104
I01
sVcontains(c)
p5105
I00
sVcontains(H)
p5106
I01
sVcontains(N)
p5107
I00
sVcontains(g)
p5108
I00
sVcontains(L)
p5109
I00
sVcontains(e)
p5110
I00
sVcontains(R)
p5111
I00
sVcontains(P)
p5112
I00
sVcontains(V)
p5113
I00
sVcontains(U)
p5114
I00
sVcontains(B)
p5115
I00
sVcontains(h)
p5116
I00
sVcontains(Y)
p5117
I00
sVcontains(F)
p5118
I00
sVcontains(D)
p5119
I00
sVcontains(J)
p5120
I00
sg3580
tp5121
a((dp5122
Vcontains(u)
p5123
I00
sVcontains(O)
p5124
I00
sVcontains(M)
p5125
I00
sVcontains(S)
p5126
I01
sVcontains(Q)
p5127
I00
sVcontains(d)
p5128
I00
sVcontains(W)
p5129
I00
sVcontains(C)
p5130
I00
sVcontains(A)
p5131
I01
sVcontains(o)
p5132
I00
sVcontains(T)
p5133
I00
sVcontains(Z)
p5134
I00
sVcontains(G)
p5135
I00
sVcontains(E)
p5136
I00
sVcontains(s)
p5137
I00
sVcontains(K)
p5138
I00
sVcontains(I)
p5139
I00
sVcontains(c)
p5140
I00
sVcontains(H)
p5141
I00
sVcontains(N)
p5142
I01
sVcontains(g)
p5143
I00
sVcontains(L)
p5144
I01
sVcontains(e)
p5145
I00
sVcontains(R)
p5146
I00
sVcontains(P)
p5147
I00
sVcontains(V)
p5148
I00
sVcontains(U)
p5149
I00
sVcontains(B)
p5150
I00
sVcontains(h)
p5151
I00
sVcontains(Y)
p5152
I00
sVcontains(F)
p5153
I00
sVcontains(D)
p5154
I01
sVcontains(J)
p5155
I00
sg3580
tp5156
a((dp5157
Vcontains(u)
p5158
I00
sVcontains(O)
p5159
I00
sVcontains(M)
p5160
I00
sVcontains(S)
p5161
I01
sVcontains(Q)
p5162
I00
sVcontains(d)
p5163
I00
sVcontains(W)
p5164
I00
sVcontains(C)
p5165
I00
sVcontains(A)
p5166
I01
sVcontains(o)
p5167
I00
sVcontains(T)
p5168
I00
sVcontains(Z)
p5169
I00
sVcontains(G)
p5170
I00
sVcontains(E)
p5171
I01
sVcontains(s)
p5172
I00
sVcontains(K)
p5173
I00
sVcontains(I)
p5174
I00
sVcontains(c)
p5175
I00
sVcontains(H)
p5176
I00
sVcontains(N)
p5177
I01
sVcontains(g)
p5178
I00
sVcontains(L)
p5179
I00
sVcontains(e)
p5180
I00
sVcontains(R)
p5181
I00
sVcontains(P)
p5182
I00
sVcontains(V)
p5183
I00
sVcontains(U)
p5184
I00
sVcontains(B)
p5185
I00
sVcontains(h)
p5186
I00
sVcontains(Y)
p5187
I00
sVcontains(F)
p5188
I00
sVcontains(D)
p5189
I00
sVcontains(J)
p5190
I00
sg3580
tp5191
a((dp5192
Vcontains(u)
p5193
I00
sVcontains(O)
p5194
I00
sVcontains(M)
p5195
I00
sVcontains(S)
p5196
I00
sVcontains(Q)
p5197
I00
sVcontains(d)
p5198
I00
sVcontains(W)
p5199
I00
sVcontains(C)
p5200
I00
sVcontains(A)
p5201
I01
sVcontains(o)
p5202
I00
sVcontains(T)
p5203
I00
sVcontains(Z)
p5204
I00
sVcontains(G)
p5205
I01
sVcontains(E)
p5206
I00
sVcontains(s)
p5207
I00
sVcontains(K)
p5208
I00
sVcontains(I)
p5209
I00
sVcontains(c)
p5210
I00
sVcontains(H)
p5211
I00
sVcontains(N)
p5212
I01
sVcontains(g)
p5213
I00
sVcontains(L)
p5214
I00
sVcontains(e)
p5215
I00
sVcontains(R)
p5216
I00
sVcontains(P)
p5217
I00
sVcontains(V)
p5218
I01
sVcontains(U)
p5219
I00
sVcontains(B)
p5220
I00
sVcontains(h)
p5221
I00
sVcontains(Y)
p5222
I00
sVcontains(F)
p5223
I00
sVcontains(D)
p5224
I00
sVcontains(J)
p5225
I00
sg3580
tp5226
a((dp5227
Vcontains(u)
p5228
I00
sVcontains(O)
p5229
I00
sVcontains(M)
p5230
I00
sVcontains(S)
p5231
I00
sVcontains(Q)
p5232
I00
sVcontains(d)
p5233
I00
sVcontains(W)
p5234
I00
sVcontains(C)
p5235
I00
sVcontains(A)
p5236
I01
sVcontains(o)
p5237
I00
sVcontains(T)
p5238
I00
sVcontains(Z)
p5239
I00
sVcontains(G)
p5240
I00
sVcontains(E)
p5241
I00
sVcontains(s)
p5242
I00
sVcontains(K)
p5243
I00
sVcontains(I)
p5244
I00
sVcontains(c)
p5245
I00
sVcontains(H)
p5246
I00
sVcontains(N)
p5247
I00
sVcontains(g)
p5248
I00
sVcontains(L)
p5249
I00
sVcontains(e)
p5250
I00
sVcontains(R)
p5251
I00
sVcontains(P)
p5252
I00
sVcontains(V)
p5253
I00
sVcontains(U)
p5254
I00
sVcontains(B)
p5255
I01
sVcontains(h)
p5256
I00
sVcontains(Y)
p5257
I00
sVcontains(F)
p5258
I00
sVcontains(D)
p5259
I00
sVcontains(J)
p5260
I00
sg3580
tp5261
a((dp5262
Vcontains(u)
p5263
I00
sVcontains(O)
p5264
I00
sVcontains(M)
p5265
I00
sVcontains(S)
p5266
I00
sVcontains(Q)
p5267
I00
sVcontains(d)
p5268
I00
sVcontains(W)
p5269
I00
sVcontains(C)
p5270
I00
sVcontains(A)
p5271
I01
sVcontains(o)
p5272
I00
sVcontains(T)
p5273
I00
sVcontains(Z)
p5274
I00
sVcontains(G)
p5275
I00
sVcontains(E)
p5276
I00
sVcontains(s)
p5277
I00
sVcontains(K)
p5278
I00
sVcontains(I)
p5279
I00
sVcontains(c)
p5280
I00
sVcontains(H)
p5281
I00
sVcontains(N)
p5282
I00
sVcontains(g)
p5283
I00
sVcontains(L)
p5284
I00
sVcontains(e)
p5285
I00
sVcontains(R)
p5286
I00
sVcontains(P)
p5287
I00
sVcontains(V)
p5288
I00
sVcontains(U)
p5289
I00
sVcontains(B)
p5290
I01
sVcontains(h)
p5291
I00
sVcontains(Y)
p5292
I00
sVcontains(F)
p5293
I00
sVcontains(D)
p5294
I00
sVcontains(J)
p5295
I00
sg3580
tp5296
a((dp5297
Vcontains(u)
p5298
I00
sVcontains(O)
p5299
I00
sVcontains(M)
p5300
I00
sVcontains(S)
p5301
I00
sVcontains(Q)
p5302
I00
sVcontains(d)
p5303
I00
sVcontains(W)
p5304
I00
sVcontains(C)
p5305
I00
sVcontains(A)
p5306
I01
sVcontains(o)
p5307
I00
sVcontains(T)
p5308
I00
sVcontains(Z)
p5309
I00
sVcontains(G)
p5310
I00
sVcontains(E)
p5311
I00
sVcontains(s)
p5312
I00
sVcontains(K)
p5313
I00
sVcontains(I)
p5314
I00
sVcontains(c)
p5315
I00
sVcontains(H)
p5316
I00
sVcontains(N)
p5317
I00
sVcontains(g)
p5318
I00
sVcontains(L)
p5319
I00
sVcontains(e)
p5320
I00
sVcontains(R)
p5321
I00
sVcontains(P)
p5322
I00
sVcontains(V)
p5323
I00
sVcontains(U)
p5324
I00
sVcontains(B)
p5325
I01
sVcontains(h)
p5326
I00
sVcontains(Y)
p5327
I00
sVcontains(F)
p5328
I00
sVcontains(D)
p5329
I01
sVcontains(J)
p5330
I00
sg3580
tp5331
a((dp5332
Vcontains(u)
p5333
I00
sVcontains(O)
p5334
I00
sVcontains(M)
p5335
I00
sVcontains(S)
p5336
I00
sVcontains(Q)
p5337
I00
sVcontains(d)
p5338
I00
sVcontains(W)
p5339
I00
sVcontains(C)
p5340
I00
sVcontains(A)
p5341
I01
sVcontains(o)
p5342
I00
sVcontains(T)
p5343
I00
sVcontains(Z)
p5344
I00
sVcontains(G)
p5345
I00
sVcontains(E)
p5346
I00
sVcontains(s)
p5347
I00
sVcontains(K)
p5348
I00
sVcontains(I)
p5349
I01
sVcontains(c)
p5350
I00
sVcontains(H)
p5351
I00
sVcontains(N)
p5352
I00
sVcontains(g)
p5353
I00
sVcontains(L)
p5354
I00
sVcontains(e)
p5355
I00
sVcontains(R)
p5356
I00
sVcontains(P)
p5357
I00
sVcontains(V)
p5358
I00
sVcontains(U)
p5359
I00
sVcontains(B)
p5360
I01
sVcontains(h)
p5361
I00
sVcontains(Y)
p5362
I00
sVcontains(F)
p5363
I00
sVcontains(D)
p5364
I01
sVcontains(J)
p5365
I00
sg3580
tp5366
a((dp5367
Vcontains(u)
p5368
I00
sVcontains(O)
p5369
I00
sVcontains(M)
p5370
I00
sVcontains(S)
p5371
I00
sVcontains(Q)
p5372
I00
sVcontains(d)
p5373
I00
sVcontains(W)
p5374
I00
sVcontains(C)
p5375
I00
sVcontains(A)
p5376
I01
sVcontains(o)
p5377
I00
sVcontains(T)
p5378
I00
sVcontains(Z)
p5379
I00
sVcontains(G)
p5380
I00
sVcontains(E)
p5381
I00
sVcontains(s)
p5382
I00
sVcontains(K)
p5383
I00
sVcontains(I)
p5384
I01
sVcontains(c)
p5385
I00
sVcontains(H)
p5386
I00
sVcontains(N)
p5387
I00
sVcontains(g)
p5388
I00
sVcontains(L)
p5389
I00
sVcontains(e)
p5390
I00
sVcontains(R)
p5391
I00
sVcontains(P)
p5392
I00
sVcontains(V)
p5393
I00
sVcontains(U)
p5394
I00
sVcontains(B)
p5395
I01
sVcontains(h)
p5396
I00
sVcontains(Y)
p5397
I00
sVcontains(F)
p5398
I00
sVcontains(D)
p5399
I01
sVcontains(J)
p5400
I00
sg3580
tp5401
a((dp5402
Vcontains(u)
p5403
I00
sVcontains(O)
p5404
I00
sVcontains(M)
p5405
I00
sVcontains(S)
p5406
I00
sVcontains(Q)
p5407
I00
sVcontains(d)
p5408
I00
sVcontains(W)
p5409
I00
sVcontains(C)
p5410
I00
sVcontains(A)
p5411
I01
sVcontains(o)
p5412
I00
sVcontains(T)
p5413
I00
sVcontains(Z)
p5414
I00
sVcontains(G)
p5415
I00
sVcontains(E)
p5416
I01
sVcontains(s)
p5417
I00
sVcontains(K)
p5418
I00
sVcontains(I)
p5419
I01
sVcontains(c)
p5420
I00
sVcontains(H)
p5421
I00
sVcontains(N)
p5422
I00
sVcontains(g)
p5423
I00
sVcontains(L)
p5424
I00
sVcontains(e)
p5425
I00
sVcontains(R)
p5426
I00
sVcontains(P)
p5427
I00
sVcontains(V)
p5428
I00
sVcontains(U)
p5429
I00
sVcontains(B)
p5430
I01
sVcontains(h)
p5431
I00
sVcontains(Y)
p5432
I00
sVcontains(F)
p5433
I00
sVcontains(D)
p5434
I01
sVcontains(J)
p5435
I00
sg3580
tp5436
a((dp5437
Vcontains(u)
p5438
I00
sVcontains(O)
p5439
I00
sVcontains(M)
p5440
I00
sVcontains(S)
p5441
I00
sVcontains(Q)
p5442
I00
sVcontains(d)
p5443
I00
sVcontains(W)
p5444
I00
sVcontains(C)
p5445
I00
sVcontains(A)
p5446
I01
sVcontains(o)
p5447
I00
sVcontains(T)
p5448
I00
sVcontains(Z)
p5449
I00
sVcontains(G)
p5450
I00
sVcontains(E)
p5451
I00
sVcontains(s)
p5452
I00
sVcontains(K)
p5453
I00
sVcontains(I)
p5454
I01
sVcontains(c)
p5455
I00
sVcontains(H)
p5456
I00
sVcontains(N)
p5457
I00
sVcontains(g)
p5458
I00
sVcontains(L)
p5459
I01
sVcontains(e)
p5460
I00
sVcontains(R)
p5461
I00
sVcontains(P)
p5462
I00
sVcontains(V)
p5463
I00
sVcontains(U)
p5464
I00
sVcontains(B)
p5465
I01
sVcontains(h)
p5466
I00
sVcontains(Y)
p5467
I00
sVcontains(F)
p5468
I00
sVcontains(D)
p5469
I01
sVcontains(J)
p5470
I00
sg3580
tp5471
a((dp5472
Vcontains(u)
p5473
I00
sVcontains(O)
p5474
I00
sVcontains(M)
p5475
I00
sVcontains(S)
p5476
I00
sVcontains(Q)
p5477
I00
sVcontains(d)
p5478
I00
sVcontains(W)
p5479
I00
sVcontains(C)
p5480
I00
sVcontains(A)
p5481
I01
sVcontains(o)
p5482
I00
sVcontains(T)
p5483
I00
sVcontains(Z)
p5484
I00
sVcontains(G)
p5485
I00
sVcontains(E)
p5486
I00
sVcontains(s)
p5487
I00
sVcontains(K)
p5488
I00
sVcontains(I)
p5489
I01
sVcontains(c)
p5490
I00
sVcontains(H)
p5491
I00
sVcontains(N)
p5492
I00
sVcontains(g)
p5493
I00
sVcontains(L)
p5494
I00
sVcontains(e)
p5495
I00
sVcontains(R)
p5496
I01
sVcontains(P)
p5497
I00
sVcontains(V)
p5498
I00
sVcontains(U)
p5499
I00
sVcontains(B)
p5500
I01
sVcontains(h)
p5501
I00
sVcontains(Y)
p5502
I00
sVcontains(F)
p5503
I00
sVcontains(D)
p5504
I01
sVcontains(J)
p5505
I00
sg3580
tp5506
a((dp5507
Vcontains(u)
p5508
I00
sVcontains(O)
p5509
I00
sVcontains(M)
p5510
I00
sVcontains(S)
p5511
I00
sVcontains(Q)
p5512
I00
sVcontains(d)
p5513
I00
sVcontains(W)
p5514
I00
sVcontains(C)
p5515
I00
sVcontains(A)
p5516
I01
sVcontains(o)
p5517
I00
sVcontains(T)
p5518
I00
sVcontains(Z)
p5519
I00
sVcontains(G)
p5520
I00
sVcontains(E)
p5521
I00
sVcontains(s)
p5522
I00
sVcontains(K)
p5523
I00
sVcontains(I)
p5524
I00
sVcontains(c)
p5525
I00
sVcontains(H)
p5526
I00
sVcontains(N)
p5527
I00
sVcontains(g)
p5528
I00
sVcontains(L)
p5529
I00
sVcontains(e)
p5530
I00
sVcontains(R)
p5531
I00
sVcontains(P)
p5532
I00
sVcontains(V)
p5533
I00
sVcontains(U)
p5534
I00
sVcontains(B)
p5535
I01
sVcontains(h)
p5536
I00
sVcontains(Y)
p5537
I01
sVcontains(F)
p5538
I00
sVcontains(D)
p5539
I01
sVcontains(J)
p5540
I00
sg3580
tp5541
a((dp5542
Vcontains(u)
p5543
I00
sVcontains(O)
p5544
I00
sVcontains(M)
p5545
I00
sVcontains(S)
p5546
I00
sVcontains(Q)
p5547
I00
sVcontains(d)
p5548
I00
sVcontains(W)
p5549
I00
sVcontains(C)
p5550
I00
sVcontains(A)
p5551
I01
sVcontains(o)
p5552
I00
sVcontains(T)
p5553
I00
sVcontains(Z)
p5554
I00
sVcontains(G)
p5555
I00
sVcontains(E)
p5556
I00
sVcontains(s)
p5557
I00
sVcontains(K)
p5558
I00
sVcontains(I)
p5559
I01
sVcontains(c)
p5560
I00
sVcontains(H)
p5561
I00
sVcontains(N)
p5562
I00
sVcontains(g)
p5563
I00
sVcontains(L)
p5564
I00
sVcontains(e)
p5565
I00
sVcontains(R)
p5566
I01
sVcontains(P)
p5567
I00
sVcontains(V)
p5568
I00
sVcontains(U)
p5569
I00
sVcontains(B)
p5570
I01
sVcontains(h)
p5571
I00
sVcontains(Y)
p5572
I00
sVcontains(F)
p5573
I00
sVcontains(D)
p5574
I00
sVcontains(J)
p5575
I00
sg3580
tp5576
a((dp5577
Vcontains(u)
p5578
I00
sVcontains(O)
p5579
I00
sVcontains(M)
p5580
I00
sVcontains(S)
p5581
I00
sVcontains(Q)
p5582
I00
sVcontains(d)
p5583
I00
sVcontains(W)
p5584
I00
sVcontains(C)
p5585
I00
sVcontains(A)
p5586
I01
sVcontains(o)
p5587
I00
sVcontains(T)
p5588
I00
sVcontains(Z)
p5589
I00
sVcontains(G)
p5590
I00
sVcontains(E)
p5591
I00
sVcontains(s)
p5592
I00
sVcontains(K)
p5593
I00
sVcontains(I)
p5594
I00
sVcontains(c)
p5595
I00
sVcontains(H)
p5596
I00
sVcontains(N)
p5597
I00
sVcontains(g)
p5598
I00
sVcontains(L)
p5599
I00
sVcontains(e)
p5600
I00
sVcontains(R)
p5601
I00
sVcontains(P)
p5602
I00
sVcontains(V)
p5603
I00
sVcontains(U)
p5604
I00
sVcontains(B)
p5605
I01
sVcontains(h)
p5606
I00
sVcontains(Y)
p5607
I00
sVcontains(F)
p5608
I00
sVcontains(D)
p5609
I00
sVcontains(J)
p5610
I01
sg3580
tp5611
a((dp5612
Vcontains(u)
p5613
I00
sVcontains(O)
p5614
I00
sVcontains(M)
p5615
I00
sVcontains(S)
p5616
I00
sVcontains(Q)
p5617
I00
sVcontains(d)
p5618
I00
sVcontains(W)
p5619
I00
sVcontains(C)
p5620
I00
sVcontains(A)
p5621
I01
sVcontains(o)
p5622
I00
sVcontains(T)
p5623
I00
sVcontains(Z)
p5624
I00
sVcontains(G)
p5625
I00
sVcontains(E)
p5626
I00
sVcontains(s)
p5627
I00
sVcontains(K)
p5628
I00
sVcontains(I)
p5629
I01
sVcontains(c)
p5630
I00
sVcontains(H)
p5631
I00
sVcontains(N)
p5632
I01
sVcontains(g)
p5633
I00
sVcontains(L)
p5634
I00
sVcontains(e)
p5635
I00
sVcontains(R)
p5636
I00
sVcontains(P)
p5637
I00
sVcontains(V)
p5638
I00
sVcontains(U)
p5639
I00
sVcontains(B)
p5640
I01
sVcontains(h)
p5641
I00
sVcontains(Y)
p5642
I00
sVcontains(F)
p5643
I00
sVcontains(D)
p5644
I00
sVcontains(J)
p5645
I01
sg3580
tp5646
a((dp5647
Vcontains(u)
p5648
I00
sVcontains(O)
p5649
I01
sVcontains(M)
p5650
I00
sVcontains(S)
p5651
I00
sVcontains(Q)
p5652
I00
sVcontains(d)
p5653
I00
sVcontains(W)
p5654
I00
sVcontains(C)
p5655
I00
sVcontains(A)
p5656
I01
sVcontains(o)
p5657
I00
sVcontains(T)
p5658
I00
sVcontains(Z)
p5659
I00
sVcontains(G)
p5660
I00
sVcontains(E)
p5661
I00
sVcontains(s)
p5662
I00
sVcontains(K)
p5663
I00
sVcontains(I)
p5664
I00
sVcontains(c)
p5665
I00
sVcontains(H)
p5666
I00
sVcontains(N)
p5667
I00
sVcontains(g)
p5668
I00
sVcontains(L)
p5669
I01
sVcontains(e)
p5670
I00
sVcontains(R)
p5671
I00
sVcontains(P)
p5672
I00
sVcontains(V)
p5673
I00
sVcontains(U)
p5674
I00
sVcontains(B)
p5675
I01
sVcontains(h)
p5676
I00
sVcontains(Y)
p5677
I00
sVcontains(F)
p5678
I00
sVcontains(D)
p5679
I00
sVcontains(J)
p5680
I00
sg3580
tp5681
a((dp5682
Vcontains(u)
p5683
I00
sVcontains(O)
p5684
I01
sVcontains(M)
p5685
I00
sVcontains(S)
p5686
I01
sVcontains(Q)
p5687
I00
sVcontains(d)
p5688
I00
sVcontains(W)
p5689
I00
sVcontains(C)
p5690
I00
sVcontains(A)
p5691
I01
sVcontains(o)
p5692
I00
sVcontains(T)
p5693
I00
sVcontains(Z)
p5694
I00
sVcontains(G)
p5695
I00
sVcontains(E)
p5696
I00
sVcontains(s)
p5697
I00
sVcontains(K)
p5698
I00
sVcontains(I)
p5699
I00
sVcontains(c)
p5700
I00
sVcontains(H)
p5701
I00
sVcontains(N)
p5702
I00
sVcontains(g)
p5703
I00
sVcontains(L)
p5704
I01
sVcontains(e)
p5705
I00
sVcontains(R)
p5706
I00
sVcontains(P)
p5707
I00
sVcontains(V)
p5708
I00
sVcontains(U)
p5709
I00
sVcontains(B)
p5710
I01
sVcontains(h)
p5711
I00
sVcontains(Y)
p5712
I00
sVcontains(F)
p5713
I00
sVcontains(D)
p5714
I00
sVcontains(J)
p5715
I00
sg3580
tp5716
a((dp5717
Vcontains(u)
p5718
I00
sVcontains(O)
p5719
I01
sVcontains(M)
p5720
I00
sVcontains(S)
p5721
I00
sVcontains(Q)
p5722
I00
sVcontains(d)
p5723
I00
sVcontains(W)
p5724
I00
sVcontains(C)
p5725
I00
sVcontains(A)
p5726
I01
sVcontains(o)
p5727
I00
sVcontains(T)
p5728
I00
sVcontains(Z)
p5729
I01
sVcontains(G)
p5730
I00
sVcontains(E)
p5731
I00
sVcontains(s)
p5732
I00
sVcontains(K)
p5733
I00
sVcontains(I)
p5734
I00
sVcontains(c)
p5735
I00
sVcontains(H)
p5736
I00
sVcontains(N)
p5737
I00
sVcontains(g)
p5738
I00
sVcontains(L)
p5739
I01
sVcontains(e)
p5740
I00
sVcontains(R)
p5741
I00
sVcontains(P)
p5742
I00
sVcontains(V)
p5743
I00
sVcontains(U)
p5744
I00
sVcontains(B)
p5745
I01
sVcontains(h)
p5746
I00
sVcontains(Y)
p5747
I00
sVcontains(F)
p5748
I00
sVcontains(D)
p5749
I00
sVcontains(J)
p5750
I00
sg3580
tp5751
a((dp5752
Vcontains(u)
p5753
I00
sVcontains(O)
p5754
I00
sVcontains(M)
p5755
I00
sVcontains(S)
p5756
I00
sVcontains(Q)
p5757
I00
sVcontains(d)
p5758
I00
sVcontains(W)
p5759
I00
sVcontains(C)
p5760
I00
sVcontains(A)
p5761
I01
sVcontains(o)
p5762
I00
sVcontains(T)
p5763
I00
sVcontains(Z)
p5764
I00
sVcontains(G)
p5765
I00
sVcontains(E)
p5766
I00
sVcontains(s)
p5767
I00
sVcontains(K)
p5768
I00
sVcontains(I)
p5769
I00
sVcontains(c)
p5770
I00
sVcontains(H)
p5771
I00
sVcontains(N)
p5772
I01
sVcontains(g)
p5773
I00
sVcontains(L)
p5774
I00
sVcontains(e)
p5775
I00
sVcontains(R)
p5776
I00
sVcontains(P)
p5777
I00
sVcontains(V)
p5778
I00
sVcontains(U)
p5779
I00
sVcontains(B)
p5780
I01
sVcontains(h)
p5781
I00
sVcontains(Y)
p5782
I00
sVcontains(F)
p5783
I00
sVcontains(D)
p5784
I00
sVcontains(J)
p5785
I00
sg3580
tp5786
a((dp5787
Vcontains(u)
p5788
I00
sVcontains(O)
p5789
I00
sVcontains(M)
p5790
I00
sVcontains(S)
p5791
I00
sVcontains(Q)
p5792
I00
sVcontains(d)
p5793
I00
sVcontains(W)
p5794
I00
sVcontains(C)
p5795
I00
sVcontains(A)
p5796
I01
sVcontains(o)
p5797
I00
sVcontains(T)
p5798
I00
sVcontains(Z)
p5799
I00
sVcontains(G)
p5800
I01
sVcontains(E)
p5801
I00
sVcontains(s)
p5802
I00
sVcontains(K)
p5803
I00
sVcontains(I)
p5804
I00
sVcontains(c)
p5805
I00
sVcontains(H)
p5806
I00
sVcontains(N)
p5807
I01
sVcontains(g)
p5808
I00
sVcontains(L)
p5809
I00
sVcontains(e)
p5810
I00
sVcontains(R)
p5811
I00
sVcontains(P)
p5812
I00
sVcontains(V)
p5813
I00
sVcontains(U)
p5814
I00
sVcontains(B)
p5815
I01
sVcontains(h)
p5816
I00
sVcontains(Y)
p5817
I00
sVcontains(F)
p5818
I00
sVcontains(D)
p5819
I00
sVcontains(J)
p5820
I00
sg3580
tp5821
a((dp5822
Vcontains(u)
p5823
I00
sVcontains(O)
p5824
I01
sVcontains(M)
p5825
I00
sVcontains(S)
p5826
I00
sVcontains(Q)
p5827
I00
sVcontains(d)
p5828
I00
sVcontains(W)
p5829
I00
sVcontains(C)
p5830
I00
sVcontains(A)
p5831
I01
sVcontains(o)
p5832
I00
sVcontains(T)
p5833
I00
sVcontains(Z)
p5834
I00
sVcontains(G)
p5835
I00
sVcontains(E)
p5836
I00
sVcontains(s)
p5837
I00
sVcontains(K)
p5838
I00
sVcontains(I)
p5839
I00
sVcontains(c)
p5840
I00
sVcontains(H)
p5841
I00
sVcontains(N)
p5842
I01
sVcontains(g)
p5843
I00
sVcontains(L)
p5844
I00
sVcontains(e)
p5845
I00
sVcontains(R)
p5846
I00
sVcontains(P)
p5847
I00
sVcontains(V)
p5848
I00
sVcontains(U)
p5849
I00
sVcontains(B)
p5850
I01
sVcontains(h)
p5851
I00
sVcontains(Y)
p5852
I00
sVcontains(F)
p5853
I00
sVcontains(D)
p5854
I00
sVcontains(J)
p5855
I00
sg3580
tp5856
a((dp5857
Vcontains(u)
p5858
I00
sVcontains(O)
p5859
I01
sVcontains(M)
p5860
I00
sVcontains(S)
p5861
I00
sVcontains(Q)
p5862
I00
sVcontains(d)
p5863
I00
sVcontains(W)
p5864
I00
sVcontains(C)
p5865
I00
sVcontains(A)
p5866
I01
sVcontains(o)
p5867
I00
sVcontains(T)
p5868
I01
sVcontains(Z)
p5869
I00
sVcontains(G)
p5870
I00
sVcontains(E)
p5871
I00
sVcontains(s)
p5872
I00
sVcontains(K)
p5873
I00
sVcontains(I)
p5874
I00
sVcontains(c)
p5875
I00
sVcontains(H)
p5876
I00
sVcontains(N)
p5877
I01
sVcontains(g)
p5878
I00
sVcontains(L)
p5879
I00
sVcontains(e)
p5880
I00
sVcontains(R)
p5881
I00
sVcontains(P)
p5882
I00
sVcontains(V)
p5883
I00
sVcontains(U)
p5884
I00
sVcontains(B)
p5885
I01
sVcontains(h)
p5886
I00
sVcontains(Y)
p5887
I00
sVcontains(F)
p5888
I00
sVcontains(D)
p5889
I00
sVcontains(J)
p5890
I00
sg3580
tp5891
a((dp5892
Vcontains(u)
p5893
I00
sVcontains(O)
p5894
I00
sVcontains(M)
p5895
I00
sVcontains(S)
p5896
I00
sVcontains(Q)
p5897
I00
sVcontains(d)
p5898
I00
sVcontains(W)
p5899
I00
sVcontains(C)
p5900
I00
sVcontains(A)
p5901
I01
sVcontains(o)
p5902
I00
sVcontains(T)
p5903
I00
sVcontains(Z)
p5904
I00
sVcontains(G)
p5905
I00
sVcontains(E)
p5906
I00
sVcontains(s)
p5907
I00
sVcontains(K)
p5908
I00
sVcontains(I)
p5909
I00
sVcontains(c)
p5910
I00
sVcontains(H)
p5911
I00
sVcontains(N)
p5912
I00
sVcontains(g)
p5913
I00
sVcontains(L)
p5914
I00
sVcontains(e)
p5915
I00
sVcontains(R)
p5916
I01
sVcontains(P)
p5917
I00
sVcontains(V)
p5918
I00
sVcontains(U)
p5919
I00
sVcontains(B)
p5920
I01
sVcontains(h)
p5921
I00
sVcontains(Y)
p5922
I00
sVcontains(F)
p5923
I00
sVcontains(D)
p5924
I00
sVcontains(J)
p5925
I00
sg3580
tp5926
a((dp5927
Vcontains(u)
p5928
I00
sVcontains(O)
p5929
I00
sVcontains(M)
p5930
I00
sVcontains(S)
p5931
I00
sVcontains(Q)
p5932
I00
sVcontains(d)
p5933
I00
sVcontains(W)
p5934
I00
sVcontains(C)
p5935
I00
sVcontains(A)
p5936
I01
sVcontains(o)
p5937
I00
sVcontains(T)
p5938
I00
sVcontains(Z)
p5939
I00
sVcontains(G)
p5940
I00
sVcontains(E)
p5941
I00
sVcontains(s)
p5942
I00
sVcontains(K)
p5943
I00
sVcontains(I)
p5944
I00
sVcontains(c)
p5945
I00
sVcontains(H)
p5946
I00
sVcontains(N)
p5947
I00
sVcontains(g)
p5948
I00
sVcontains(L)
p5949
I00
sVcontains(e)
p5950
I00
sVcontains(R)
p5951
I01
sVcontains(P)
p5952
I00
sVcontains(V)
p5953
I00
sVcontains(U)
p5954
I00
sVcontains(B)
p5955
I01
sVcontains(h)
p5956
I00
sVcontains(Y)
p5957
I00
sVcontains(F)
p5958
I00
sVcontains(D)
p5959
I00
sVcontains(J)
p5960
I00
sg3580
tp5961
a((dp5962
Vcontains(u)
p5963
I00
sVcontains(O)
p5964
I00
sVcontains(M)
p5965
I00
sVcontains(S)
p5966
I00
sVcontains(Q)
p5967
I00
sVcontains(d)
p5968
I00
sVcontains(W)
p5969
I00
sVcontains(C)
p5970
I00
sVcontains(A)
p5971
I01
sVcontains(o)
p5972
I00
sVcontains(T)
p5973
I00
sVcontains(Z)
p5974
I00
sVcontains(G)
p5975
I00
sVcontains(E)
p5976
I01
sVcontains(s)
p5977
I00
sVcontains(K)
p5978
I00
sVcontains(I)
p5979
I00
sVcontains(c)
p5980
I00
sVcontains(H)
p5981
I00
sVcontains(N)
p5982
I01
sVcontains(g)
p5983
I00
sVcontains(L)
p5984
I01
sVcontains(e)
p5985
I00
sVcontains(R)
p5986
I01
sVcontains(P)
p5987
I00
sVcontains(V)
p5988
I00
sVcontains(U)
p5989
I00
sVcontains(B)
p5990
I01
sVcontains(h)
p5991
I00
sVcontains(Y)
p5992
I00
sVcontains(F)
p5993
I00
sVcontains(D)
p5994
I00
sVcontains(J)
p5995
I00
sg3580
tp5996
a((dp5997
Vcontains(u)
p5998
I00
sVcontains(O)
p5999
I00
sVcontains(M)
p6000
I00
sVcontains(S)
p6001
I00
sVcontains(Q)
p6002
I00
sVcontains(d)
p6003
I00
sVcontains(W)
p6004
I00
sVcontains(C)
p6005
I01
sVcontains(A)
p6006
I01
sVcontains(o)
p6007
I00
sVcontains(T)
p6008
I00
sVcontains(Z)
p6009
I00
sVcontains(G)
p6010
I00
sVcontains(E)
p6011
I00
sVcontains(s)
p6012
I00
sVcontains(K)
p6013
I00
sVcontains(I)
p6014
I00
sVcontains(c)
p6015
I00
sVcontains(H)
p6016
I00
sVcontains(N)
p6017
I00
sVcontains(g)
p6018
I00
sVcontains(L)
p6019
I00
sVcontains(e)
p6020
I00
sVcontains(R)
p6021
I01
sVcontains(P)
p6022
I00
sVcontains(V)
p6023
I00
sVcontains(U)
p6024
I00
sVcontains(B)
p6025
I01
sVcontains(h)
p6026
I00
sVcontains(Y)
p6027
I00
sVcontains(F)
p6028
I00
sVcontains(D)
p6029
I00
sVcontains(J)
p6030
I00
sg3580
tp6031
a((dp6032
Vcontains(u)
p6033
I00
sVcontains(O)
p6034
I00
sVcontains(M)
p6035
I00
sVcontains(S)
p6036
I00
sVcontains(Q)
p6037
I00
sVcontains(d)
p6038
I00
sVcontains(W)
p6039
I00
sVcontains(C)
p6040
I00
sVcontains(A)
p6041
I01
sVcontains(o)
p6042
I00
sVcontains(T)
p6043
I00
sVcontains(Z)
p6044
I00
sVcontains(G)
p6045
I00
sVcontains(E)
p6046
I01
sVcontains(s)
p6047
I00
sVcontains(K)
p6048
I00
sVcontains(I)
p6049
I00
sVcontains(c)
p6050
I00
sVcontains(H)
p6051
I00
sVcontains(N)
p6052
I00
sVcontains(g)
p6053
I00
sVcontains(L)
p6054
I00
sVcontains(e)
p6055
I00
sVcontains(R)
p6056
I01
sVcontains(P)
p6057
I00
sVcontains(V)
p6058
I00
sVcontains(U)
p6059
I00
sVcontains(B)
p6060
I01
sVcontains(h)
p6061
I00
sVcontains(Y)
p6062
I00
sVcontains(F)
p6063
I00
sVcontains(D)
p6064
I00
sVcontains(J)
p6065
I00
sg3580
tp6066
a((dp6067
Vcontains(u)
p6068
I00
sVcontains(O)
p6069
I01
sVcontains(M)
p6070
I00
sVcontains(S)
p6071
I00
sVcontains(Q)
p6072
I00
sVcontains(d)
p6073
I00
sVcontains(W)
p6074
I00
sVcontains(C)
p6075
I00
sVcontains(A)
p6076
I01
sVcontains(o)
p6077
I00
sVcontains(T)
p6078
I00
sVcontains(Z)
p6079
I00
sVcontains(G)
p6080
I00
sVcontains(E)
p6081
I00
sVcontains(s)
p6082
I00
sVcontains(K)
p6083
I00
sVcontains(I)
p6084
I00
sVcontains(c)
p6085
I00
sVcontains(H)
p6086
I00
sVcontains(N)
p6087
I01
sVcontains(g)
p6088
I00
sVcontains(L)
p6089
I00
sVcontains(e)
p6090
I00
sVcontains(R)
p6091
I01
sVcontains(P)
p6092
I00
sVcontains(V)
p6093
I00
sVcontains(U)
p6094
I00
sVcontains(B)
p6095
I01
sVcontains(h)
p6096
I00
sVcontains(Y)
p6097
I00
sVcontains(F)
p6098
I00
sVcontains(D)
p6099
I00
sVcontains(J)
p6100
I00
sg3580
tp6101
a((dp6102
Vcontains(u)
p6103
I00
sVcontains(O)
p6104
I00
sVcontains(M)
p6105
I00
sVcontains(S)
p6106
I00
sVcontains(Q)
p6107
I01
sVcontains(d)
p6108
I00
sVcontains(W)
p6109
I00
sVcontains(C)
p6110
I00
sVcontains(A)
p6111
I01
sVcontains(o)
p6112
I00
sVcontains(T)
p6113
I00
sVcontains(Z)
p6114
I01
sVcontains(G)
p6115
I00
sVcontains(E)
p6116
I01
sVcontains(s)
p6117
I00
sVcontains(K)
p6118
I00
sVcontains(I)
p6119
I00
sVcontains(c)
p6120
I00
sVcontains(H)
p6121
I00
sVcontains(N)
p6122
I00
sVcontains(g)
p6123
I00
sVcontains(L)
p6124
I00
sVcontains(e)
p6125
I00
sVcontains(R)
p6126
I01
sVcontains(P)
p6127
I00
sVcontains(V)
p6128
I00
sVcontains(U)
p6129
I01
sVcontains(B)
p6130
I01
sVcontains(h)
p6131
I00
sVcontains(Y)
p6132
I00
sVcontains(F)
p6133
I00
sVcontains(D)
p6134
I00
sVcontains(J)
p6135
I00
sg3580
tp6136
a((dp6137
Vcontains(u)
p6138
I00
sVcontains(O)
p6139
I00
sVcontains(M)
p6140
I00
sVcontains(S)
p6141
I00
sVcontains(Q)
p6142
I00
sVcontains(d)
p6143
I00
sVcontains(W)
p6144
I00
sVcontains(C)
p6145
I00
sVcontains(A)
p6146
I01
sVcontains(o)
p6147
I00
sVcontains(T)
p6148
I00
sVcontains(Z)
p6149
I00
sVcontains(G)
p6150
I00
sVcontains(E)
p6151
I00
sVcontains(s)
p6152
I00
sVcontains(K)
p6153
I00
sVcontains(I)
p6154
I00
sVcontains(c)
p6155
I00
sVcontains(H)
p6156
I00
sVcontains(N)
p6157
I00
sVcontains(g)
p6158
I00
sVcontains(L)
p6159
I00
sVcontains(e)
p6160
I00
sVcontains(R)
p6161
I01
sVcontains(P)
p6162
I00
sVcontains(V)
p6163
I00
sVcontains(U)
p6164
I00
sVcontains(B)
p6165
I01
sVcontains(h)
p6166
I00
sVcontains(Y)
p6167
I00
sVcontains(F)
p6168
I00
sVcontains(D)
p6169
I00
sVcontains(J)
p6170
I00
sg3580
tp6171
a((dp6172
Vcontains(u)
p6173
I00
sVcontains(O)
p6174
I00
sVcontains(M)
p6175
I00
sVcontains(S)
p6176
I01
sVcontains(Q)
p6177
I00
sVcontains(d)
p6178
I00
sVcontains(W)
p6179
I00
sVcontains(C)
p6180
I00
sVcontains(A)
p6181
I01
sVcontains(o)
p6182
I00
sVcontains(T)
p6183
I00
sVcontains(Z)
p6184
I00
sVcontains(G)
p6185
I00
sVcontains(E)
p6186
I00
sVcontains(s)
p6187
I00
sVcontains(K)
p6188
I00
sVcontains(I)
p6189
I00
sVcontains(c)
p6190
I00
sVcontains(H)
p6191
I00
sVcontains(N)
p6192
I00
sVcontains(g)
p6193
I00
sVcontains(L)
p6194
I00
sVcontains(e)
p6195
I00
sVcontains(R)
p6196
I00
sVcontains(P)
p6197
I00
sVcontains(V)
p6198
I00
sVcontains(U)
p6199
I00
sVcontains(B)
p6200
I01
sVcontains(h)
p6201
I00
sVcontains(Y)
p6202
I00
sVcontains(F)
p6203
I00
sVcontains(D)
p6204
I00
sVcontains(J)
p6205
I00
sg3580
tp6206
a((dp6207
Vcontains(u)
p6208
I00
sVcontains(O)
p6209
I00
sVcontains(M)
p6210
I00
sVcontains(S)
p6211
I01
sVcontains(Q)
p6212
I00
sVcontains(d)
p6213
I00
sVcontains(W)
p6214
I00
sVcontains(C)
p6215
I01
sVcontains(A)
p6216
I01
sVcontains(o)
p6217
I00
sVcontains(T)
p6218
I00
sVcontains(Z)
p6219
I00
sVcontains(G)
p6220
I00
sVcontains(E)
p6221
I00
sVcontains(s)
p6222
I00
sVcontains(K)
p6223
I00
sVcontains(I)
p6224
I00
sVcontains(c)
p6225
I00
sVcontains(H)
p6226
I00
sVcontains(N)
p6227
I00
sVcontains(g)
p6228
I00
sVcontains(L)
p6229
I01
sVcontains(e)
p6230
I00
sVcontains(R)
p6231
I00
sVcontains(P)
p6232
I00
sVcontains(V)
p6233
I00
sVcontains(U)
p6234
I00
sVcontains(B)
p6235
I01
sVcontains(h)
p6236
I00
sVcontains(Y)
p6237
I00
sVcontains(F)
p6238
I00
sVcontains(D)
p6239
I00
sVcontains(J)
p6240
I00
sg3580
tp6241
a((dp6242
Vcontains(u)
p6243
I00
sVcontains(O)
p6244
I01
sVcontains(M)
p6245
I00
sVcontains(S)
p6246
I01
sVcontains(Q)
p6247
I00
sVcontains(d)
p6248
I00
sVcontains(W)
p6249
I00
sVcontains(C)
p6250
I00
sVcontains(A)
p6251
I01
sVcontains(o)
p6252
I00
sVcontains(T)
p6253
I00
sVcontains(Z)
p6254
I00
sVcontains(G)
p6255
I00
sVcontains(E)
p6256
I00
sVcontains(s)
p6257
I00
sVcontains(K)
p6258
I00
sVcontains(I)
p6259
I00
sVcontains(c)
p6260
I00
sVcontains(H)
p6261
I00
sVcontains(N)
p6262
I00
sVcontains(g)
p6263
I00
sVcontains(L)
p6264
I01
sVcontains(e)
p6265
I00
sVcontains(R)
p6266
I00
sVcontains(P)
p6267
I00
sVcontains(V)
p6268
I00
sVcontains(U)
p6269
I00
sVcontains(B)
p6270
I01
sVcontains(h)
p6271
I00
sVcontains(Y)
p6272
I00
sVcontains(F)
p6273
I00
sVcontains(D)
p6274
I00
sVcontains(J)
p6275
I00
sg3580
tp6276
a((dp6277
Vcontains(u)
p6278
I00
sVcontains(O)
p6279
I00
sVcontains(M)
p6280
I00
sVcontains(S)
p6281
I01
sVcontains(Q)
p6282
I00
sVcontains(d)
p6283
I00
sVcontains(W)
p6284
I00
sVcontains(C)
p6285
I00
sVcontains(A)
p6286
I01
sVcontains(o)
p6287
I00
sVcontains(T)
p6288
I00
sVcontains(Z)
p6289
I00
sVcontains(G)
p6290
I00
sVcontains(E)
p6291
I00
sVcontains(s)
p6292
I00
sVcontains(K)
p6293
I00
sVcontains(I)
p6294
I00
sVcontains(c)
p6295
I00
sVcontains(H)
p6296
I00
sVcontains(N)
p6297
I00
sVcontains(g)
p6298
I00
sVcontains(L)
p6299
I00
sVcontains(e)
p6300
I00
sVcontains(R)
p6301
I00
sVcontains(P)
p6302
I00
sVcontains(V)
p6303
I00
sVcontains(U)
p6304
I00
sVcontains(B)
p6305
I01
sVcontains(h)
p6306
I00
sVcontains(Y)
p6307
I00
sVcontains(F)
p6308
I00
sVcontains(D)
p6309
I00
sVcontains(J)
p6310
I00
sg3580
tp6311
a((dp6312
Vcontains(u)
p6313
I00
sVcontains(O)
p6314
I00
sVcontains(M)
p6315
I00
sVcontains(S)
p6316
I01
sVcontains(Q)
p6317
I00
sVcontains(d)
p6318
I00
sVcontains(W)
p6319
I00
sVcontains(C)
p6320
I00
sVcontains(A)
p6321
I01
sVcontains(o)
p6322
I00
sVcontains(T)
p6323
I00
sVcontains(Z)
p6324
I00
sVcontains(G)
p6325
I00
sVcontains(E)
p6326
I00
sVcontains(s)
p6327
I00
sVcontains(K)
p6328
I00
sVcontains(I)
p6329
I01
sVcontains(c)
p6330
I00
sVcontains(H)
p6331
I00
sVcontains(N)
p6332
I00
sVcontains(g)
p6333
I00
sVcontains(L)
p6334
I00
sVcontains(e)
p6335
I00
sVcontains(R)
p6336
I00
sVcontains(P)
p6337
I00
sVcontains(V)
p6338
I00
sVcontains(U)
p6339
I00
sVcontains(B)
p6340
I01
sVcontains(h)
p6341
I00
sVcontains(Y)
p6342
I00
sVcontains(F)
p6343
I00
sVcontains(D)
p6344
I00
sVcontains(J)
p6345
I00
sg3580
tp6346
a((dp6347
Vcontains(u)
p6348
I00
sVcontains(O)
p6349
I00
sVcontains(M)
p6350
I00
sVcontains(S)
p6351
I01
sVcontains(Q)
p6352
I00
sVcontains(d)
p6353
I00
sVcontains(W)
p6354
I00
sVcontains(C)
p6355
I00
sVcontains(A)
p6356
I01
sVcontains(o)
p6357
I00
sVcontains(T)
p6358
I01
sVcontains(Z)
p6359
I00
sVcontains(G)
p6360
I00
sVcontains(E)
p6361
I00
sVcontains(s)
p6362
I00
sVcontains(K)
p6363
I00
sVcontains(I)
p6364
I00
sVcontains(c)
p6365
I00
sVcontains(H)
p6366
I00
sVcontains(N)
p6367
I00
sVcontains(g)
p6368
I00
sVcontains(L)
p6369
I00
sVcontains(e)
p6370
I00
sVcontains(R)
p6371
I00
sVcontains(P)
p6372
I00
sVcontains(V)
p6373
I00
sVcontains(U)
p6374
I00
sVcontains(B)
p6375
I01
sVcontains(h)
p6376
I00
sVcontains(Y)
p6377
I00
sVcontains(F)
p6378
I00
sVcontains(D)
p6379
I00
sVcontains(J)
p6380
I00
sg3580
tp6381
a((dp6382
Vcontains(u)
p6383
I00
sVcontains(O)
p6384
I00
sVcontains(M)
p6385
I00
sVcontains(S)
p6386
I00
sVcontains(Q)
p6387
I00
sVcontains(d)
p6388
I00
sVcontains(W)
p6389
I00
sVcontains(C)
p6390
I00
sVcontains(A)
p6391
I01
sVcontains(o)
p6392
I00
sVcontains(T)
p6393
I01
sVcontains(Z)
p6394
I00
sVcontains(G)
p6395
I00
sVcontains(E)
p6396
I00
sVcontains(s)
p6397
I00
sVcontains(K)
p6398
I00
sVcontains(I)
p6399
I00
sVcontains(c)
p6400
I00
sVcontains(H)
p6401
I00
sVcontains(N)
p6402
I00
sVcontains(g)
p6403
I00
sVcontains(L)
p6404
I00
sVcontains(e)
p6405
I00
sVcontains(R)
p6406
I00
sVcontains(P)
p6407
I00
sVcontains(V)
p6408
I00
sVcontains(U)
p6409
I00
sVcontains(B)
p6410
I01
sVcontains(h)
p6411
I00
sVcontains(Y)
p6412
I00
sVcontains(F)
p6413
I00
sVcontains(D)
p6414
I00
sVcontains(J)
p6415
I00
sg3580
tp6416
a((dp6417
Vcontains(u)
p6418
I00
sVcontains(O)
p6419
I00
sVcontains(M)
p6420
I00
sVcontains(S)
p6421
I00
sVcontains(Q)
p6422
I00
sVcontains(d)
p6423
I00
sVcontains(W)
p6424
I00
sVcontains(C)
p6425
I00
sVcontains(A)
p6426
I01
sVcontains(o)
p6427
I00
sVcontains(T)
p6428
I01
sVcontains(Z)
p6429
I00
sVcontains(G)
p6430
I00
sVcontains(E)
p6431
I00
sVcontains(s)
p6432
I00
sVcontains(K)
p6433
I00
sVcontains(I)
p6434
I00
sVcontains(c)
p6435
I00
sVcontains(H)
p6436
I00
sVcontains(N)
p6437
I00
sVcontains(g)
p6438
I00
sVcontains(L)
p6439
I00
sVcontains(e)
p6440
I00
sVcontains(R)
p6441
I00
sVcontains(P)
p6442
I00
sVcontains(V)
p6443
I00
sVcontains(U)
p6444
I00
sVcontains(B)
p6445
I01
sVcontains(h)
p6446
I00
sVcontains(Y)
p6447
I00
sVcontains(F)
p6448
I00
sVcontains(D)
p6449
I00
sVcontains(J)
p6450
I00
sg3580
tp6451
a((dp6452
Vcontains(u)
p6453
I00
sVcontains(O)
p6454
I01
sVcontains(M)
p6455
I00
sVcontains(S)
p6456
I00
sVcontains(Q)
p6457
I00
sVcontains(d)
p6458
I00
sVcontains(W)
p6459
I00
sVcontains(C)
p6460
I00
sVcontains(A)
p6461
I01
sVcontains(o)
p6462
I00
sVcontains(T)
p6463
I01
sVcontains(Z)
p6464
I00
sVcontains(G)
p6465
I01
sVcontains(E)
p6466
I01
sVcontains(s)
p6467
I00
sVcontains(K)
p6468
I00
sVcontains(I)
p6469
I00
sVcontains(c)
p6470
I00
sVcontains(H)
p6471
I00
sVcontains(N)
p6472
I01
sVcontains(g)
p6473
I00
sVcontains(L)
p6474
I01
sVcontains(e)
p6475
I00
sVcontains(R)
p6476
I00
sVcontains(P)
p6477
I00
sVcontains(V)
p6478
I00
sVcontains(U)
p6479
I00
sVcontains(B)
p6480
I01
sVcontains(h)
p6481
I00
sVcontains(Y)
p6482
I00
sVcontains(F)
p6483
I00
sVcontains(D)
p6484
I00
sVcontains(J)
p6485
I00
sg3580
tp6486
a((dp6487
Vcontains(u)
p6488
I00
sVcontains(O)
p6489
I00
sVcontains(M)
p6490
I00
sVcontains(S)
p6491
I00
sVcontains(Q)
p6492
I00
sVcontains(d)
p6493
I00
sVcontains(W)
p6494
I00
sVcontains(C)
p6495
I00
sVcontains(A)
p6496
I01
sVcontains(o)
p6497
I00
sVcontains(T)
p6498
I01
sVcontains(Z)
p6499
I00
sVcontains(G)
p6500
I00
sVcontains(E)
p6501
I01
sVcontains(s)
p6502
I00
sVcontains(K)
p6503
I00
sVcontains(I)
p6504
I00
sVcontains(c)
p6505
I00
sVcontains(H)
p6506
I00
sVcontains(N)
p6507
I00
sVcontains(g)
p6508
I00
sVcontains(L)
p6509
I00
sVcontains(e)
p6510
I00
sVcontains(R)
p6511
I00
sVcontains(P)
p6512
I00
sVcontains(V)
p6513
I00
sVcontains(U)
p6514
I00
sVcontains(B)
p6515
I01
sVcontains(h)
p6516
I00
sVcontains(Y)
p6517
I00
sVcontains(F)
p6518
I00
sVcontains(D)
p6519
I00
sVcontains(J)
p6520
I00
sg3580
tp6521
a((dp6522
Vcontains(u)
p6523
I00
sVcontains(O)
p6524
I01
sVcontains(M)
p6525
I00
sVcontains(S)
p6526
I00
sVcontains(Q)
p6527
I00
sVcontains(d)
p6528
I00
sVcontains(W)
p6529
I00
sVcontains(C)
p6530
I01
sVcontains(A)
p6531
I01
sVcontains(o)
p6532
I00
sVcontains(T)
p6533
I01
sVcontains(Z)
p6534
I00
sVcontains(G)
p6535
I00
sVcontains(E)
p6536
I01
sVcontains(s)
p6537
I00
sVcontains(K)
p6538
I00
sVcontains(I)
p6539
I00
sVcontains(c)
p6540
I00
sVcontains(H)
p6541
I00
sVcontains(N)
p6542
I00
sVcontains(g)
p6543
I00
sVcontains(L)
p6544
I01
sVcontains(e)
p6545
I00
sVcontains(R)
p6546
I00
sVcontains(P)
p6547
I00
sVcontains(V)
p6548
I00
sVcontains(U)
p6549
I00
sVcontains(B)
p6550
I01
sVcontains(h)
p6551
I00
sVcontains(Y)
p6552
I00
sVcontains(F)
p6553
I00
sVcontains(D)
p6554
I00
sVcontains(J)
p6555
I00
sg3580
tp6556
a((dp6557
Vcontains(u)
p6558
I00
sVcontains(O)
p6559
I01
sVcontains(M)
p6560
I01
sVcontains(S)
p6561
I00
sVcontains(Q)
p6562
I00
sVcontains(d)
p6563
I00
sVcontains(W)
p6564
I00
sVcontains(C)
p6565
I01
sVcontains(A)
p6566
I01
sVcontains(o)
p6567
I00
sVcontains(T)
p6568
I01
sVcontains(Z)
p6569
I00
sVcontains(G)
p6570
I00
sVcontains(E)
p6571
I01
sVcontains(s)
p6572
I00
sVcontains(K)
p6573
I00
sVcontains(I)
p6574
I00
sVcontains(c)
p6575
I00
sVcontains(H)
p6576
I00
sVcontains(N)
p6577
I00
sVcontains(g)
p6578
I00
sVcontains(L)
p6579
I00
sVcontains(e)
p6580
I00
sVcontains(R)
p6581
I01
sVcontains(P)
p6582
I00
sVcontains(V)
p6583
I00
sVcontains(U)
p6584
I00
sVcontains(B)
p6585
I01
sVcontains(h)
p6586
I00
sVcontains(Y)
p6587
I00
sVcontains(F)
p6588
I00
sVcontains(D)
p6589
I00
sVcontains(J)
p6590
I00
sg3580
tp6591
a((dp6592
Vcontains(u)
p6593
I00
sVcontains(O)
p6594
I00
sVcontains(M)
p6595
I00
sVcontains(S)
p6596
I00
sVcontains(Q)
p6597
I00
sVcontains(d)
p6598
I00
sVcontains(W)
p6599
I00
sVcontains(C)
p6600
I00
sVcontains(A)
p6601
I01
sVcontains(o)
p6602
I00
sVcontains(T)
p6603
I01
sVcontains(Z)
p6604
I00
sVcontains(G)
p6605
I00
sVcontains(E)
p6606
I00
sVcontains(s)
p6607
I00
sVcontains(K)
p6608
I00
sVcontains(I)
p6609
I01
sVcontains(c)
p6610
I00
sVcontains(H)
p6611
I00
sVcontains(N)
p6612
I00
sVcontains(g)
p6613
I00
sVcontains(L)
p6614
I00
sVcontains(e)
p6615
I00
sVcontains(R)
p6616
I00
sVcontains(P)
p6617
I00
sVcontains(V)
p6618
I00
sVcontains(U)
p6619
I00
sVcontains(B)
p6620
I01
sVcontains(h)
p6621
I00
sVcontains(Y)
p6622
I00
sVcontains(F)
p6623
I00
sVcontains(D)
p6624
I00
sVcontains(J)
p6625
I00
sg3580
tp6626
a((dp6627
Vcontains(u)
p6628
I00
sVcontains(O)
p6629
I00
sVcontains(M)
p6630
I00
sVcontains(S)
p6631
I00
sVcontains(Q)
p6632
I00
sVcontains(d)
p6633
I00
sVcontains(W)
p6634
I00
sVcontains(C)
p6635
I00
sVcontains(A)
p6636
I01
sVcontains(o)
p6637
I00
sVcontains(T)
p6638
I01
sVcontains(Z)
p6639
I00
sVcontains(G)
p6640
I00
sVcontains(E)
p6641
I01
sVcontains(s)
p6642
I00
sVcontains(K)
p6643
I00
sVcontains(I)
p6644
I01
sVcontains(c)
p6645
I00
sVcontains(H)
p6646
I00
sVcontains(N)
p6647
I00
sVcontains(g)
p6648
I00
sVcontains(L)
p6649
I01
sVcontains(e)
p6650
I00
sVcontains(R)
p6651
I00
sVcontains(P)
p6652
I00
sVcontains(V)
p6653
I00
sVcontains(U)
p6654
I00
sVcontains(B)
p6655
I01
sVcontains(h)
p6656
I00
sVcontains(Y)
p6657
I00
sVcontains(F)
p6658
I00
sVcontains(D)
p6659
I00
sVcontains(J)
p6660
I00
sg3580
tp6661
a((dp6662
Vcontains(u)
p6663
I00
sVcontains(O)
p6664
I01
sVcontains(M)
p6665
I00
sVcontains(S)
p6666
I00
sVcontains(Q)
p6667
I00
sVcontains(d)
p6668
I00
sVcontains(W)
p6669
I00
sVcontains(C)
p6670
I00
sVcontains(A)
p6671
I01
sVcontains(o)
p6672
I00
sVcontains(T)
p6673
I01
sVcontains(Z)
p6674
I00
sVcontains(G)
p6675
I00
sVcontains(E)
p6676
I00
sVcontains(s)
p6677
I00
sVcontains(K)
p6678
I00
sVcontains(I)
p6679
I00
sVcontains(c)
p6680
I00
sVcontains(H)
p6681
I00
sVcontains(N)
p6682
I00
sVcontains(g)
p6683
I00
sVcontains(L)
p6684
I00
sVcontains(e)
p6685
I00
sVcontains(R)
p6686
I00
sVcontains(P)
p6687
I00
sVcontains(V)
p6688
I00
sVcontains(U)
p6689
I00
sVcontains(B)
p6690
I01
sVcontains(h)
p6691
I00
sVcontains(Y)
p6692
I00
sVcontains(F)
p6693
I00
sVcontains(D)
p6694
I00
sVcontains(J)
p6695
I00
sg3580
tp6696
a((dp6697
Vcontains(u)
p6698
I00
sVcontains(O)
p6699
I00
sVcontains(M)
p6700
I00
sVcontains(S)
p6701
I00
sVcontains(Q)
p6702
I00
sVcontains(d)
p6703
I00
sVcontains(W)
p6704
I00
sVcontains(C)
p6705
I00
sVcontains(A)
p6706
I01
sVcontains(o)
p6707
I00
sVcontains(T)
p6708
I01
sVcontains(Z)
p6709
I00
sVcontains(G)
p6710
I00
sVcontains(E)
p6711
I00
sVcontains(s)
p6712
I00
sVcontains(K)
p6713
I00
sVcontains(I)
p6714
I01
sVcontains(c)
p6715
I00
sVcontains(H)
p6716
I00
sVcontains(N)
p6717
I00
sVcontains(g)
p6718
I00
sVcontains(L)
p6719
I00
sVcontains(e)
p6720
I00
sVcontains(R)
p6721
I00
sVcontains(P)
p6722
I00
sVcontains(V)
p6723
I00
sVcontains(U)
p6724
I00
sVcontains(B)
p6725
I01
sVcontains(h)
p6726
I00
sVcontains(Y)
p6727
I00
sVcontains(F)
p6728
I00
sVcontains(D)
p6729
I00
sVcontains(J)
p6730
I00
sg3580
tp6731
a((dp6732
Vcontains(u)
p6733
I00
sVcontains(O)
p6734
I00
sVcontains(M)
p6735
I00
sVcontains(S)
p6736
I00
sVcontains(Q)
p6737
I00
sVcontains(d)
p6738
I00
sVcontains(W)
p6739
I00
sVcontains(C)
p6740
I00
sVcontains(A)
p6741
I01
sVcontains(o)
p6742
I00
sVcontains(T)
p6743
I00
sVcontains(Z)
p6744
I01
sVcontains(G)
p6745
I00
sVcontains(E)
p6746
I00
sVcontains(s)
p6747
I00
sVcontains(K)
p6748
I00
sVcontains(I)
p6749
I00
sVcontains(c)
p6750
I00
sVcontains(H)
p6751
I00
sVcontains(N)
p6752
I01
sVcontains(g)
p6753
I00
sVcontains(L)
p6754
I00
sVcontains(e)
p6755
I00
sVcontains(R)
p6756
I00
sVcontains(P)
p6757
I00
sVcontains(V)
p6758
I00
sVcontains(U)
p6759
I01
sVcontains(B)
p6760
I01
sVcontains(h)
p6761
I00
sVcontains(Y)
p6762
I00
sVcontains(F)
p6763
I00
sVcontains(D)
p6764
I00
sVcontains(J)
p6765
I00
sg3580
tp6766
a((dp6767
Vcontains(u)
p6768
I00
sVcontains(O)
p6769
I00
sVcontains(M)
p6770
I00
sVcontains(S)
p6771
I00
sVcontains(Q)
p6772
I00
sVcontains(d)
p6773
I00
sVcontains(W)
p6774
I01
sVcontains(C)
p6775
I00
sVcontains(A)
p6776
I01
sVcontains(o)
p6777
I00
sVcontains(T)
p6778
I00
sVcontains(Z)
p6779
I00
sVcontains(G)
p6780
I00
sVcontains(E)
p6781
I00
sVcontains(s)
p6782
I00
sVcontains(K)
p6783
I00
sVcontains(I)
p6784
I01
sVcontains(c)
p6785
I00
sVcontains(H)
p6786
I00
sVcontains(N)
p6787
I00
sVcontains(g)
p6788
I00
sVcontains(L)
p6789
I00
sVcontains(e)
p6790
I00
sVcontains(R)
p6791
I00
sVcontains(P)
p6792
I00
sVcontains(V)
p6793
I00
sVcontains(U)
p6794
I00
sVcontains(B)
p6795
I01
sVcontains(h)
p6796
I00
sVcontains(Y)
p6797
I00
sVcontains(F)
p6798
I00
sVcontains(D)
p6799
I00
sVcontains(J)
p6800
I00
sg3580
tp6801
a((dp6802
Vcontains(u)
p6803
I00
sVcontains(O)
p6804
I00
sVcontains(M)
p6805
I00
sVcontains(S)
p6806
I00
sVcontains(Q)
p6807
I00
sVcontains(d)
p6808
I00
sVcontains(W)
p6809
I00
sVcontains(C)
p6810
I00
sVcontains(A)
p6811
I01
sVcontains(o)
p6812
I00
sVcontains(T)
p6813
I00
sVcontains(Z)
p6814
I00
sVcontains(G)
p6815
I00
sVcontains(E)
p6816
I00
sVcontains(s)
p6817
I00
sVcontains(K)
p6818
I00
sVcontains(I)
p6819
I00
sVcontains(c)
p6820
I00
sVcontains(H)
p6821
I00
sVcontains(N)
p6822
I00
sVcontains(g)
p6823
I00
sVcontains(L)
p6824
I00
sVcontains(e)
p6825
I00
sVcontains(R)
p6826
I00
sVcontains(P)
p6827
I00
sVcontains(V)
p6828
I00
sVcontains(U)
p6829
I00
sVcontains(B)
p6830
I01
sVcontains(h)
p6831
I00
sVcontains(Y)
p6832
I01
sVcontains(F)
p6833
I00
sVcontains(D)
p6834
I00
sVcontains(J)
p6835
I00
sg3580
tp6836
a((dp6837
Vcontains(u)
p6838
I00
sVcontains(O)
p6839
I00
sVcontains(M)
p6840
I00
sVcontains(S)
p6841
I00
sVcontains(Q)
p6842
I00
sVcontains(d)
p6843
I00
sVcontains(W)
p6844
I00
sVcontains(C)
p6845
I00
sVcontains(A)
p6846
I01
sVcontains(o)
p6847
I00
sVcontains(T)
p6848
I00
sVcontains(Z)
p6849
I00
sVcontains(G)
p6850
I00
sVcontains(E)
p6851
I00
sVcontains(s)
p6852
I00
sVcontains(K)
p6853
I00
sVcontains(I)
p6854
I00
sVcontains(c)
p6855
I00
sVcontains(H)
p6856
I00
sVcontains(N)
p6857
I00
sVcontains(g)
p6858
I00
sVcontains(L)
p6859
I00
sVcontains(e)
p6860
I00
sVcontains(R)
p6861
I00
sVcontains(P)
p6862
I00
sVcontains(V)
p6863
I00
sVcontains(U)
p6864
I00
sVcontains(B)
p6865
I01
sVcontains(h)
p6866
I00
sVcontains(Y)
p6867
I01
sVcontains(F)
p6868
I00
sVcontains(D)
p6869
I00
sVcontains(J)
p6870
I00
sg3580
tp6871
a((dp6872
Vcontains(u)
p6873
I00
sVcontains(O)
p6874
I00
sVcontains(M)
p6875
I00
sVcontains(S)
p6876
I00
sVcontains(Q)
p6877
I00
sVcontains(d)
p6878
I00
sVcontains(W)
p6879
I00
sVcontains(C)
p6880
I00
sVcontains(A)
p6881
I01
sVcontains(o)
p6882
I00
sVcontains(T)
p6883
I00
sVcontains(Z)
p6884
I00
sVcontains(G)
p6885
I00
sVcontains(E)
p6886
I01
sVcontains(s)
p6887
I00
sVcontains(K)
p6888
I00
sVcontains(I)
p6889
I00
sVcontains(c)
p6890
I00
sVcontains(H)
p6891
I00
sVcontains(N)
p6892
I00
sVcontains(g)
p6893
I00
sVcontains(L)
p6894
I00
sVcontains(e)
p6895
I00
sVcontains(R)
p6896
I00
sVcontains(P)
p6897
I00
sVcontains(V)
p6898
I01
sVcontains(U)
p6899
I00
sVcontains(B)
p6900
I01
sVcontains(h)
p6901
I00
sVcontains(Y)
p6902
I01
sVcontains(F)
p6903
I00
sVcontains(D)
p6904
I00
sVcontains(J)
p6905
I00
sg3580
tp6906
a((dp6907
Vcontains(u)
p6908
I00
sVcontains(O)
p6909
I00
sVcontains(M)
p6910
I00
sVcontains(S)
p6911
I00
sVcontains(Q)
p6912
I00
sVcontains(d)
p6913
I00
sVcontains(W)
p6914
I00
sVcontains(C)
p6915
I00
sVcontains(A)
p6916
I01
sVcontains(o)
p6917
I00
sVcontains(T)
p6918
I00
sVcontains(Z)
p6919
I01
sVcontains(G)
p6920
I00
sVcontains(E)
p6921
I00
sVcontains(s)
p6922
I00
sVcontains(K)
p6923
I00
sVcontains(I)
p6924
I00
sVcontains(c)
p6925
I00
sVcontains(H)
p6926
I00
sVcontains(N)
p6927
I00
sVcontains(g)
p6928
I00
sVcontains(L)
p6929
I00
sVcontains(e)
p6930
I00
sVcontains(R)
p6931
I00
sVcontains(P)
p6932
I00
sVcontains(V)
p6933
I00
sVcontains(U)
p6934
I00
sVcontains(B)
p6935
I01
sVcontains(h)
p6936
I00
sVcontains(Y)
p6937
I00
sVcontains(F)
p6938
I00
sVcontains(D)
p6939
I00
sVcontains(J)
p6940
I00
sg3580
tp6941
a((dp6942
Vcontains(u)
p6943
I00
sVcontains(O)
p6944
I00
sVcontains(M)
p6945
I00
sVcontains(S)
p6946
I00
sVcontains(Q)
p6947
I00
sVcontains(d)
p6948
I00
sVcontains(W)
p6949
I00
sVcontains(C)
p6950
I00
sVcontains(A)
p6951
I01
sVcontains(o)
p6952
I00
sVcontains(T)
p6953
I00
sVcontains(Z)
p6954
I00
sVcontains(G)
p6955
I00
sVcontains(E)
p6956
I00
sVcontains(s)
p6957
I00
sVcontains(K)
p6958
I00
sVcontains(I)
p6959
I00
sVcontains(c)
p6960
I00
sVcontains(H)
p6961
I00
sVcontains(N)
p6962
I00
sVcontains(g)
p6963
I00
sVcontains(L)
p6964
I00
sVcontains(e)
p6965
I00
sVcontains(R)
p6966
I00
sVcontains(P)
p6967
I00
sVcontains(V)
p6968
I00
sVcontains(U)
p6969
I00
sVcontains(B)
p6970
I01
sVcontains(h)
p6971
I00
sVcontains(Y)
p6972
I00
sVcontains(F)
p6973
I00
sVcontains(D)
p6974
I00
sVcontains(J)
p6975
I00
sg3580
tp6976
a((dp6977
Vcontains(u)
p6978
I00
sVcontains(O)
p6979
I00
sVcontains(M)
p6980
I00
sVcontains(S)
p6981
I00
sVcontains(Q)
p6982
I00
sVcontains(d)
p6983
I00
sVcontains(W)
p6984
I00
sVcontains(C)
p6985
I00
sVcontains(A)
p6986
I01
sVcontains(o)
p6987
I00
sVcontains(T)
p6988
I00
sVcontains(Z)
p6989
I00
sVcontains(G)
p6990
I00
sVcontains(E)
p6991
I00
sVcontains(s)
p6992
I00
sVcontains(K)
p6993
I00
sVcontains(I)
p6994
I00
sVcontains(c)
p6995
I00
sVcontains(H)
p6996
I00
sVcontains(N)
p6997
I00
sVcontains(g)
p6998
I00
sVcontains(L)
p6999
I00
sVcontains(e)
p7000
I00
sVcontains(R)
p7001
I00
sVcontains(P)
p7002
I00
sVcontains(V)
p7003
I00
sVcontains(U)
p7004
I00
sVcontains(B)
p7005
I01
sVcontains(h)
p7006
I00
sVcontains(Y)
p7007
I00
sVcontains(F)
p7008
I00
sVcontains(D)
p7009
I00
sVcontains(J)
p7010
I00
sg3580
tp7011
a((dp7012
Vcontains(u)
p7013
I00
sVcontains(O)
p7014
I00
sVcontains(M)
p7015
I00
sVcontains(S)
p7016
I01
sVcontains(Q)
p7017
I00
sVcontains(d)
p7018
I00
sVcontains(W)
p7019
I00
sVcontains(C)
p7020
I00
sVcontains(A)
p7021
I01
sVcontains(o)
p7022
I00
sVcontains(T)
p7023
I00
sVcontains(Z)
p7024
I00
sVcontains(G)
p7025
I00
sVcontains(E)
p7026
I01
sVcontains(s)
p7027
I00
sVcontains(K)
p7028
I00
sVcontains(I)
p7029
I00
sVcontains(c)
p7030
I00
sVcontains(H)
p7031
I00
sVcontains(N)
p7032
I00
sVcontains(g)
p7033
I00
sVcontains(L)
p7034
I00
sVcontains(e)
p7035
I00
sVcontains(R)
p7036
I00
sVcontains(P)
p7037
I00
sVcontains(V)
p7038
I00
sVcontains(U)
p7039
I00
sVcontains(B)
p7040
I01
sVcontains(h)
p7041
I00
sVcontains(Y)
p7042
I00
sVcontains(F)
p7043
I00
sVcontains(D)
p7044
I01
sVcontains(J)
p7045
I00
sg3580
tp7046
a((dp7047
Vcontains(u)
p7048
I00
sVcontains(O)
p7049
I01
sVcontains(M)
p7050
I01
sVcontains(S)
p7051
I00
sVcontains(Q)
p7052
I00
sVcontains(d)
p7053
I00
sVcontains(W)
p7054
I00
sVcontains(C)
p7055
I00
sVcontains(A)
p7056
I01
sVcontains(o)
p7057
I00
sVcontains(T)
p7058
I01
sVcontains(Z)
p7059
I00
sVcontains(G)
p7060
I00
sVcontains(E)
p7061
I01
sVcontains(s)
p7062
I00
sVcontains(K)
p7063
I00
sVcontains(I)
p7064
I00
sVcontains(c)
p7065
I00
sVcontains(H)
p7066
I00
sVcontains(N)
p7067
I01
sVcontains(g)
p7068
I00
sVcontains(L)
p7069
I00
sVcontains(e)
p7070
I00
sVcontains(R)
p7071
I00
sVcontains(P)
p7072
I00
sVcontains(V)
p7073
I00
sVcontains(U)
p7074
I00
sVcontains(B)
p7075
I01
sVcontains(h)
p7076
I00
sVcontains(Y)
p7077
I00
sVcontains(F)
p7078
I00
sVcontains(D)
p7079
I00
sVcontains(J)
p7080
I00
sg3580
tp7081
asS'train_set'
p7082
(lp7083
(S'A . U .'
p7084
g44
tp7085
a(S'A A N'
p7086
g44
tp7087
a(S'A A R C F'
p7088
g44
tp7089
a(S'A A S'
p7090
g44
tp7091
a(S'A C L S'
p7092
g44
tp7093
a(S'A C N P - B C'
p7094
g44
tp7095
a(S'A D N'
p7096
g44
tp7097
a(S'A E - C'
p7098
g44
tp7099
a(S'A L N C'
p7100
g44
tp7101
a(S'A N P'
p7102
g44
tp7103
a(S'A N P - B C'
p7104
g44
tp7105
a(S'A O C N'
p7106
g44
tp7107
a(S'A O C N P'
p7108
g44
tp7109
a(S'A O C N S'
p7110
g44
tp7111
a(S'A P N'
p7112
g44
tp7113
a(S'A P R N'
p7114
g44
tp7115
a(S'A R N P'
p7116
g44
tp7117
a(S'A R R T'
p7118
g44
tp7119
a(S'A R T'
p7120
g44
tp7121
a(S'A S C P'
p7122
g44
tp7123
a(S'A S N'
p7124
g44
tp7125
a(S'A S N C'
p7126
g44
tp7127
a(S'A S P O'
p7128
g44
tp7129
a(S'A T C'
p7130
g44
tp7131
a(S'A s s o c'
p7132
g44
tp7133
a(S'A u . D .'
p7134
g44
tp7135
a(S'B . C . - A D M'
p7136
g44
tp7137
a(S'B . S .'
p7138
g44
tp7139
a(S'B A'
p7140
g44
tp7141
a(S'B A O'
p7142
g44
tp7143
a(S'B C L S'
p7144
g44
tp7145
a(S'B H S'
p7146
g44
tp7147
a(S'B H S c   N s g'
p7148
g44
tp7149
a(S'B M'
p7150
g44
tp7151
a(S'B M   B C h'
p7152
g44
tp7153
a(S'B M   B S'
p7154
g44
tp7155
a(S'B M B S'
p7156
g44
tp7157
a(S'B M S'
p7158
g44
tp7159
a(S'B M e d   / c'
p7160
g44
tp7161
a(S'B M e d / M D'
p7162
g44
tp7163
a(S'B M e d S c / M D'
p7164
g44
tp7165
a(S'B S'
p7166
g44
tp7167
a(S'B S N'
p7168
g44
tp7169
a(S'B S P H'
p7170
g44
tp7171
a(S'B S W'
p7172
g44
tp7173
a(S'B V M S'
p7174
g44
tp7175
a(S'B s'
p7176
g44
tp7177
a(S'C - S P I'
p7178
g44
tp7179
a(S'C A N P'
p7180
g44
tp7181
a(S'C A P A'
p7182
g44
tp7183
a(S'C A R N'
p7184
g44
tp7185
a(S'C A T N - I'
p7186
g44
tp7187
a(S'C A T N - P'
p7188
g44
tp7189
a(S'C C C - A'
p7190
g44
tp7191
a(S'C C C - S L P'
p7192
g44
tp7193
a(S'C C C N'
p7194
g44
tp7195
a(S'C C E'
p7196
g44
tp7197
a(S'C C M'
p7198
g44
tp7199
a(S'C C N S'
p7200
g44
tp7201
a(S'C C P'
p7202
g44
tp7203
a(S'C C R N'
p7204
g44
tp7205
a(S'C C T C'
p7206
g44
tp7207
a(S'C C T N'
p7208
g44
tp7209
a(S'C C T R N'
p7210
g44
tp7211
a(S'C D'
p7212
g44
tp7213
a(S'C D A'
p7214
g44
tp7215
a(S'C D D N'
p7216
g44
tp7217
a(S'C D E'
p7218
g44
tp7219
a(S'C D M S'
p7220
g44
tp7221
a(S'C D N'
p7222
g44
tp7223
a(S'C D O N A / L T C'
p7224
g44
tp7225
a(S'C D T C'
p7226
g44
tp7227
a(S'C E N'
p7228
g44
tp7229
a(S'C E T N'
p7230
g44
tp7231
a(S'C F C N'
p7232
g44
tp7233
a(S'C F N'
p7234
g44
tp7235
a(S'C F N P'
p7236
g44
tp7237
a(S'C F R N'
p7238
g44
tp7239
a(S'C G C'
p7240
g44
tp7241
a(S'C G N'
p7242
g44
tp7243
a(S'C G R N'
p7244
g44
tp7245
a(S'C G T'
p7246
g44
tp7247
a(S'C H E S'
p7248
g44
tp7249
a(S'C H N'
p7250
g44
tp7251
a(S'C H R N'
p7252
g44
tp7253
a(S'C H T'
p7254
g44
tp7255
a(S'C H U C'
p7256
g44
tp7257
a(S'C I C'
p7258
g44
tp7259
a(S'C L A'
p7260
g44
tp7261
a(S'C L E'
p7262
g44
tp7263
a(S'C L N C'
p7264
g44
tp7265
a(S'C L P N I'
p7266
g44
tp7267
a(S'C L S'
p7268
g44
tp7269
a(S'C L T'
p7270
g44
tp7271
a(S'C M'
p7272
g44
tp7273
a(S'C M A'
p7274
g44
tp7275
a(S'C M A - A'
p7276
g44
tp7277
a(S'C M A - C'
p7278
g44
tp7279
a(S'C M C N'
p7280
g44
tp7281
a(S'C M D S C'
p7282
g44
tp7283
a(S'C M S R N'
p7284
g44
tp7285
a(S'A A B E R G'
p7286
g3580
tp7287
a(S'A A B Y'
p7288
g3580
tp7289
a(S'A A D L A N D'
p7290
g3580
tp7291
a(S'A A F E D T'
p7292
g3580
tp7293
a(S'A A G A A R D'
p7294
g3580
tp7295
a(S'A A G A R D'
p7296
g3580
tp7297
a(S'A A G E S E N'
p7298
g3580
tp7299
a(S'A A K E R'
p7300
g3580
tp7301
a(S'A A K H U S'
p7302
g3580
tp7303
a(S'A A K R E'
p7304
g3580
tp7305
a(S'A A L A N D'
p7306
g3580
tp7307
a(S'A A L B E R S'
p7308
g3580
tp7309
a(S'A A L D E R I N K'
p7310
g3580
tp7311
a(S'A A L F S'
p7312
g3580
tp7313
a(S'A A L G A A R D'
p7314
g3580
tp7315
a(S'A A L T O'
p7316
g3580
tp7317
a(S'A A L U N D'
p7318
g3580
tp7319
a(S'A A M O D T'
p7320
g3580
tp7321
a(S'A A M O L D'
p7322
g3580
tp7323
a(S'A A M O T'
p7324
g3580
tp7325
a(S'A A M O T H'
p7326
g3580
tp7327
a(S'A A N D E R U D'
p7328
g3580
tp7329
a(S'A A N E N S O N'
p7330
g3580
tp7331
a(S'A A N E R U D'
p7332
g3580
tp7333
a(S'A A N E S T A D'
p7334
g3580
tp7335
a(S'A A N O N S E N'
p7336
g3580
tp7337
a(S'A A R A N T'
p7338
g3580
tp7339
a(S'A A R D A L'
p7340
g3580
tp7341
a(S'A A R D E M A'
p7342
g3580
tp7343
a(S'A A R D S M A'
p7344
g3580
tp7345
a(S'A A R E S T A D'
p7346
g3580
tp7347
a(S'A A R H U S'
p7348
g3580
tp7349
a(S'A A R O N'
p7350
g3580
tp7351
a(S'A A R O N S'
p7352
g3580
tp7353
a(S'A A R O N S O N'
p7354
g3580
tp7355
a(S'A A R R I S'
p7356
g3580
tp7357
a(S'A A R S T A D'
p7358
g3580
tp7359
a(S'A A R S V O L D'
p7360
g3580
tp7361
a(S'A A R T S'
p7362
g3580
tp7363
a(S'A A S'
p7364
g3580
tp7365
a(S'A A S A N D'
p7366
g3580
tp7367
a(S'A A S B Y'
p7368
g3580
tp7369
a(S'A A S E'
p7370
g3580
tp7371
a(S'A A S E N'
p7372
g3580
tp7373
a(S'A A S H E I M'
p7374
g3580
tp7375
a(S'A A S L A N D'
p7376
g3580
tp7377
a(S'A A S N E S S'
p7378
g3580
tp7379
a(S'A A V A N G'
p7380
g3580
tp7381
a(S'A B'
p7382
g3580
tp7383
a(S'A B A'
p7384
g3580
tp7385
a(S'A B A D'
p7386
g3580
tp7387
a(S'A B A D I'
p7388
g3580
tp7389
a(S'A B A D I A'
p7390
g3580
tp7391
a(S'A B A D I E'
p7392
g3580
tp7393
a(S'A B A D I L L A'
p7394
g3580
tp7395
a(S'A B A D I R'
p7396
g3580
tp7397
a(S'A B A D Y'
p7398
g3580
tp7399
a(S'A B A I R'
p7400
g3580
tp7401
a(S'A B A J A'
p7402
g3580
tp7403
a(S'A B A J I A N'
p7404
g3580
tp7405
a(S'A B A L O'
p7406
g3580
tp7407
a(S'A B A L O S'
p7408
g3580
tp7409
a(S'A B A L O Z'
p7410
g3580
tp7411
a(S'A B A N'
p7412
g3580
tp7413
a(S'A B A N G'
p7414
g3580
tp7415
a(S'A B A N O'
p7416
g3580
tp7417
a(S'A B A N T O'
p7418
g3580
tp7419
a(S'A B A R'
p7420
g3580
tp7421
a(S'A B A R A'
p7422
g3580
tp7423
a(S'A B A R B A N E L'
p7424
g3580
tp7425
a(S'A B A R C A'
p7426
g3580
tp7427
a(S'A B A R E'
p7428
g3580
tp7429
a(S'A B A R N O'
p7430
g3580
tp7431
a(S'A B A R Q U E Z'
p7432
g3580
tp7433
a(S'A B A R R'
p7434
g3580
tp7435
a(S'A B A S'
p7436
g3580
tp7437
a(S'A B A S C A L'
p7438
g3580
tp7439
a(S'A B A S O L O'
p7440
g3580
tp7441
a(S'A B A S S'
p7442
g3580
tp7443
a(S'A B A S S I'
p7444
g3580
tp7445
a(S'A B A S T A'
p7446
g3580
tp7447
a(S'A B A T'
p7448
g3580
tp7449
a(S'A B A T A'
p7450
g3580
tp7451
a(S'A B A T A N G E L O'
p7452
g3580
tp7453
a(S'A B A T E'
p7454
g3580
tp7455
a(S'A B A T E C O L A'
p7456
g3580
tp7457
a(S'A B A T E M A R C O'
p7458
g3580
tp7459
a(S'A B A T I'
p7460
g3580
tp7461
a(S'A B A T I E L L'
p7462
g3580
tp7463
a(S'A B A T O'
p7464
g3580
tp7465
a(S'A B A T T I'
p7466
g3580
tp7467
a(S'A B A U N Z A'
p7468
g3580
tp7469
a(S'A B A W I'
p7470
g3580
tp7471
a(S'A B A Y'
p7472
g3580
tp7473
a(S'A B A Y A'
p7474
g3580
tp7475
a(S'A B A Y E V'
p7476
g3580
tp7477
a(S'A B A Z A'
p7478
g3580
tp7479
a(S'A B B'
p7480
g3580
tp7481
a(S'A B B A'
p7482
g3580
tp7483
a(S'A B B A D E S S A'
p7484
g3580
tp7485
a(S'A B B A M O N T E'
p7486
g3580
tp7487
asS'feature_extractor'
p7488
ctextblob.classifiers
basic_extractor
p7489
sb.